ARM GAS  /tmp/ccFu8X3s.s 			page 1


   1              		.cpu cortex-m3
   2              		.eabi_attribute 20, 1
   3              		.eabi_attribute 21, 1
   4              		.eabi_attribute 23, 3
   5              		.eabi_attribute 24, 1
   6              		.eabi_attribute 25, 1
   7              		.eabi_attribute 26, 1
   8              		.eabi_attribute 30, 1
   9              		.eabi_attribute 34, 1
  10              		.eabi_attribute 18, 4
  11              		.file	"freertos.c"
  12              		.text
  13              	.Ltext0:
  14              		.cfi_sections	.debug_frame
  15              		.section	.text.InitializeTask,"ax",%progbits
  16              		.align	1
  17              		.global	InitializeTask
  18              		.arch armv7-m
  19              		.syntax unified
  20              		.thumb
  21              		.thumb_func
  22              		.fpu softvfp
  24              	InitializeTask:
  25              	.LFB75:
  26              		.file 1 "Core/Src/freertos.c"
   1:Core/Src/freertos.c **** /* USER CODE BEGIN Header */
   2:Core/Src/freertos.c **** /**
   3:Core/Src/freertos.c ****   ******************************************************************************
   4:Core/Src/freertos.c ****   * File Name          : freertos.c
   5:Core/Src/freertos.c ****   * Description        : Code for freertos applications
   6:Core/Src/freertos.c ****   ******************************************************************************
   7:Core/Src/freertos.c ****   * @attention
   8:Core/Src/freertos.c ****   *
   9:Core/Src/freertos.c ****   * Copyright (c) 2026 STMicroelectronics.
  10:Core/Src/freertos.c ****   * All rights reserved.
  11:Core/Src/freertos.c ****   *
  12:Core/Src/freertos.c ****   * This software is licensed under terms that can be found in the LICENSE file
  13:Core/Src/freertos.c ****   * in the root directory of this software component.
  14:Core/Src/freertos.c ****   * If no LICENSE file comes with this software, it is provided AS-IS.
  15:Core/Src/freertos.c ****   *
  16:Core/Src/freertos.c ****   ******************************************************************************
  17:Core/Src/freertos.c ****   */
  18:Core/Src/freertos.c **** /* USER CODE END Header */
  19:Core/Src/freertos.c **** 
  20:Core/Src/freertos.c **** /* Includes ------------------------------------------------------------------*/
  21:Core/Src/freertos.c **** #include "FreeRTOS.h"
  22:Core/Src/freertos.c **** #include "task.h"
  23:Core/Src/freertos.c **** #include "main.h"
  24:Core/Src/freertos.c **** #include "cmsis_os.h"
  25:Core/Src/freertos.c **** 
  26:Core/Src/freertos.c **** /* Private includes ----------------------------------------------------------*/
  27:Core/Src/freertos.c **** /* USER CODE BEGIN Includes */
  28:Core/Src/freertos.c **** 
  29:Core/Src/freertos.c **** /* USER CODE END Includes */
  30:Core/Src/freertos.c **** 
  31:Core/Src/freertos.c **** /* Private typedef -----------------------------------------------------------*/
  32:Core/Src/freertos.c **** typedef StaticTask_t osStaticThreadDef_t;
ARM GAS  /tmp/ccFu8X3s.s 			page 2


  33:Core/Src/freertos.c **** /* USER CODE BEGIN PTD */
  34:Core/Src/freertos.c **** 
  35:Core/Src/freertos.c **** /* USER CODE END PTD */
  36:Core/Src/freertos.c **** 
  37:Core/Src/freertos.c **** /* Private define ------------------------------------------------------------*/
  38:Core/Src/freertos.c **** /* USER CODE BEGIN PD */
  39:Core/Src/freertos.c **** 
  40:Core/Src/freertos.c **** /* USER CODE END PD */
  41:Core/Src/freertos.c **** 
  42:Core/Src/freertos.c **** /* Private macro -------------------------------------------------------------*/
  43:Core/Src/freertos.c **** /* USER CODE BEGIN PM */
  44:Core/Src/freertos.c **** 
  45:Core/Src/freertos.c **** /* USER CODE END PM */
  46:Core/Src/freertos.c **** 
  47:Core/Src/freertos.c **** /* Private variables ---------------------------------------------------------*/
  48:Core/Src/freertos.c **** /* USER CODE BEGIN Variables */
  49:Core/Src/freertos.c **** 
  50:Core/Src/freertos.c **** /* USER CODE END Variables */
  51:Core/Src/freertos.c **** /* Definitions for Task_Initialize */
  52:Core/Src/freertos.c **** osThreadId_t Task_InitializeHandle;
  53:Core/Src/freertos.c **** uint32_t Task_InitializeBuffer[ 128 ];
  54:Core/Src/freertos.c **** osStaticThreadDef_t Task_InitializeControlBlock;
  55:Core/Src/freertos.c **** const osThreadAttr_t Task_Initialize_attributes = {
  56:Core/Src/freertos.c ****   .name = "Task_Initialize",
  57:Core/Src/freertos.c ****   .cb_mem = &Task_InitializeControlBlock,
  58:Core/Src/freertos.c ****   .cb_size = sizeof(Task_InitializeControlBlock),
  59:Core/Src/freertos.c ****   .stack_mem = &Task_InitializeBuffer[0],
  60:Core/Src/freertos.c ****   .stack_size = sizeof(Task_InitializeBuffer),
  61:Core/Src/freertos.c ****   .priority = (osPriority_t) osPriorityRealtime7,
  62:Core/Src/freertos.c **** };
  63:Core/Src/freertos.c **** /* Definitions for Task_Sensor */
  64:Core/Src/freertos.c **** osThreadId_t Task_SensorHandle;
  65:Core/Src/freertos.c **** uint32_t Task_SensorBuffer[ 128 ];
  66:Core/Src/freertos.c **** osStaticThreadDef_t Task_SensorControlBlock;
  67:Core/Src/freertos.c **** const osThreadAttr_t Task_Sensor_attributes = {
  68:Core/Src/freertos.c ****   .name = "Task_Sensor",
  69:Core/Src/freertos.c ****   .cb_mem = &Task_SensorControlBlock,
  70:Core/Src/freertos.c ****   .cb_size = sizeof(Task_SensorControlBlock),
  71:Core/Src/freertos.c ****   .stack_mem = &Task_SensorBuffer[0],
  72:Core/Src/freertos.c ****   .stack_size = sizeof(Task_SensorBuffer),
  73:Core/Src/freertos.c ****   .priority = (osPriority_t) osPriorityHigh,
  74:Core/Src/freertos.c **** };
  75:Core/Src/freertos.c **** /* Definitions for Task_Interact */
  76:Core/Src/freertos.c **** osThreadId_t Task_InteractHandle;
  77:Core/Src/freertos.c **** uint32_t Task_InteractBuffer[ 3000 ];
  78:Core/Src/freertos.c **** osStaticThreadDef_t Task_InteractControlBlock;
  79:Core/Src/freertos.c **** const osThreadAttr_t Task_Interact_attributes = {
  80:Core/Src/freertos.c ****   .name = "Task_Interact",
  81:Core/Src/freertos.c ****   .cb_mem = &Task_InteractControlBlock,
  82:Core/Src/freertos.c ****   .cb_size = sizeof(Task_InteractControlBlock),
  83:Core/Src/freertos.c ****   .stack_mem = &Task_InteractBuffer[0],
  84:Core/Src/freertos.c ****   .stack_size = sizeof(Task_InteractBuffer),
  85:Core/Src/freertos.c ****   .priority = (osPriority_t) osPriorityNormal,
  86:Core/Src/freertos.c **** };
  87:Core/Src/freertos.c **** /* Definitions for Task_Monitor */
  88:Core/Src/freertos.c **** osThreadId_t Task_MonitorHandle;
  89:Core/Src/freertos.c **** uint32_t Task_MonitorBuffer[ 128 ];
ARM GAS  /tmp/ccFu8X3s.s 			page 3


  90:Core/Src/freertos.c **** osStaticThreadDef_t Task_MonitorControlBlock;
  91:Core/Src/freertos.c **** const osThreadAttr_t Task_Monitor_attributes = {
  92:Core/Src/freertos.c ****   .name = "Task_Monitor",
  93:Core/Src/freertos.c ****   .cb_mem = &Task_MonitorControlBlock,
  94:Core/Src/freertos.c ****   .cb_size = sizeof(Task_MonitorControlBlock),
  95:Core/Src/freertos.c ****   .stack_mem = &Task_MonitorBuffer[0],
  96:Core/Src/freertos.c ****   .stack_size = sizeof(Task_MonitorBuffer),
  97:Core/Src/freertos.c ****   .priority = (osPriority_t) osPriorityBelowNormal,
  98:Core/Src/freertos.c **** };
  99:Core/Src/freertos.c **** /* Definitions for Task_Display */
 100:Core/Src/freertos.c **** osThreadId_t Task_DisplayHandle;
 101:Core/Src/freertos.c **** uint32_t Task_DisplayBuffer[ 128 ];
 102:Core/Src/freertos.c **** osStaticThreadDef_t Task_DisplayControlBlock;
 103:Core/Src/freertos.c **** const osThreadAttr_t Task_Display_attributes = {
 104:Core/Src/freertos.c ****   .name = "Task_Display",
 105:Core/Src/freertos.c ****   .cb_mem = &Task_DisplayControlBlock,
 106:Core/Src/freertos.c ****   .cb_size = sizeof(Task_DisplayControlBlock),
 107:Core/Src/freertos.c ****   .stack_mem = &Task_DisplayBuffer[0],
 108:Core/Src/freertos.c ****   .stack_size = sizeof(Task_DisplayBuffer),
 109:Core/Src/freertos.c ****   .priority = (osPriority_t) osPriorityLow,
 110:Core/Src/freertos.c **** };
 111:Core/Src/freertos.c **** /* Definitions for Task_Motion */
 112:Core/Src/freertos.c **** osThreadId_t Task_MotionHandle;
 113:Core/Src/freertos.c **** uint32_t Task_MotionBuffer[ 512 ];
 114:Core/Src/freertos.c **** osStaticThreadDef_t Task_MotionControlBlock;
 115:Core/Src/freertos.c **** const osThreadAttr_t Task_Motion_attributes = {
 116:Core/Src/freertos.c ****   .name = "Task_Motion",
 117:Core/Src/freertos.c ****   .cb_mem = &Task_MotionControlBlock,
 118:Core/Src/freertos.c ****   .cb_size = sizeof(Task_MotionControlBlock),
 119:Core/Src/freertos.c ****   .stack_mem = &Task_MotionBuffer[0],
 120:Core/Src/freertos.c ****   .stack_size = sizeof(Task_MotionBuffer),
 121:Core/Src/freertos.c ****   .priority = (osPriority_t) osPriorityLow,
 122:Core/Src/freertos.c **** };
 123:Core/Src/freertos.c **** 
 124:Core/Src/freertos.c **** /* Private function prototypes -----------------------------------------------*/
 125:Core/Src/freertos.c **** /* USER CODE BEGIN FunctionPrototypes */
 126:Core/Src/freertos.c **** 
 127:Core/Src/freertos.c **** /* USER CODE END FunctionPrototypes */
 128:Core/Src/freertos.c **** 
 129:Core/Src/freertos.c **** void InitializeTask(void *argument);
 130:Core/Src/freertos.c **** extern void SensorAcquisitionTask(void *argument);
 131:Core/Src/freertos.c **** extern void ProtocolProcessTask(void *argument);
 132:Core/Src/freertos.c **** extern void SystemGuardianTask(void *argument);
 133:Core/Src/freertos.c **** extern void UserInterfaceTask(void *argument);
 134:Core/Src/freertos.c **** extern void MotorControlTask(void *argument);
 135:Core/Src/freertos.c **** 
 136:Core/Src/freertos.c **** void MX_FREERTOS_Init(void); /* (MISRA C 2004 rule 8.1) */
 137:Core/Src/freertos.c **** 
 138:Core/Src/freertos.c **** /* Hook prototypes */
 139:Core/Src/freertos.c **** void vApplicationIdleHook(void);
 140:Core/Src/freertos.c **** void vApplicationTickHook(void);
 141:Core/Src/freertos.c **** void vApplicationStackOverflowHook(xTaskHandle xTask, signed char *pcTaskName);
 142:Core/Src/freertos.c **** void vApplicationMallocFailedHook(void);
 143:Core/Src/freertos.c **** void vApplicationDaemonTaskStartupHook(void);
 144:Core/Src/freertos.c **** 
 145:Core/Src/freertos.c **** /* USER CODE BEGIN 2 */
 146:Core/Src/freertos.c **** void vApplicationIdleHook( void )
ARM GAS  /tmp/ccFu8X3s.s 			page 4


 147:Core/Src/freertos.c **** {
 148:Core/Src/freertos.c ****    /* vApplicationIdleHook() will only be called if configUSE_IDLE_HOOK is set
 149:Core/Src/freertos.c ****    to 1 in FreeRTOSConfig.h. It will be called on each iteration of the idle
 150:Core/Src/freertos.c ****    task. It is essential that code added to this hook function never attempts
 151:Core/Src/freertos.c ****    to block in any way (for example, call xQueueReceive() with a block time
 152:Core/Src/freertos.c ****    specified, or call vTaskDelay()). If the application makes use of the
 153:Core/Src/freertos.c ****    vTaskDelete() API function (as this demo application does) then it is also
 154:Core/Src/freertos.c ****    important that vApplicationIdleHook() is permitted to return to its calling
 155:Core/Src/freertos.c ****    function, because it is the responsibility of the idle task to clean up
 156:Core/Src/freertos.c ****    memory allocated by the kernel to any task that has since been deleted. */
 157:Core/Src/freertos.c **** }
 158:Core/Src/freertos.c **** /* USER CODE END 2 */
 159:Core/Src/freertos.c **** 
 160:Core/Src/freertos.c **** /* USER CODE BEGIN 3 */
 161:Core/Src/freertos.c **** void vApplicationTickHook( void )
 162:Core/Src/freertos.c **** {
 163:Core/Src/freertos.c ****    /* This function will be called by each tick interrupt if
 164:Core/Src/freertos.c ****    configUSE_TICK_HOOK is set to 1 in FreeRTOSConfig.h. User code can be
 165:Core/Src/freertos.c ****    added here, but the tick hook is called from an interrupt context, so
 166:Core/Src/freertos.c ****    code must not attempt to block, and only the interrupt safe FreeRTOS API
 167:Core/Src/freertos.c ****    functions can be used (those that end in FromISR()). */
 168:Core/Src/freertos.c **** }
 169:Core/Src/freertos.c **** /* USER CODE END 3 */
 170:Core/Src/freertos.c **** 
 171:Core/Src/freertos.c **** /* USER CODE BEGIN 4 */
 172:Core/Src/freertos.c **** void vApplicationStackOverflowHook(xTaskHandle xTask, signed char *pcTaskName)
 173:Core/Src/freertos.c **** {
 174:Core/Src/freertos.c ****    /* Run time stack overflow checking is performed if
 175:Core/Src/freertos.c ****    configCHECK_FOR_STACK_OVERFLOW is defined to 1 or 2. This hook function is
 176:Core/Src/freertos.c ****    called if a stack overflow is detected. */
 177:Core/Src/freertos.c ****    for(;;){
 178:Core/Src/freertos.c ****       HAL_GPIO_TogglePin(GPIOF, GPIO_PIN_5); // 发生栈溢出时，PC13 翻转，方便调试
 179:Core/Src/freertos.c ****    }
 180:Core/Src/freertos.c ****    
 181:Core/Src/freertos.c **** }
 182:Core/Src/freertos.c **** /* USER CODE END 4 */
 183:Core/Src/freertos.c **** 
 184:Core/Src/freertos.c **** /* USER CODE BEGIN 5 */
 185:Core/Src/freertos.c **** void vApplicationMallocFailedHook(void)
 186:Core/Src/freertos.c **** {
 187:Core/Src/freertos.c ****    /* vApplicationMallocFailedHook() will only be called if
 188:Core/Src/freertos.c ****    configUSE_MALLOC_FAILED_HOOK is set to 1 in FreeRTOSConfig.h. It is a hook
 189:Core/Src/freertos.c ****    function that will get called if a call to pvPortMalloc() fails.
 190:Core/Src/freertos.c ****    pvPortMalloc() is called internally by the kernel whenever a task, queue,
 191:Core/Src/freertos.c ****    timer or semaphore is created. It is also called by various parts of the
 192:Core/Src/freertos.c ****    demo application. If heap_1.c or heap_2.c are used, then the size of the
 193:Core/Src/freertos.c ****    heap available to pvPortMalloc() is defined by configTOTAL_HEAP_SIZE in
 194:Core/Src/freertos.c ****    FreeRTOSConfig.h, and the xPortGetFreeHeapSize() API function can be used
 195:Core/Src/freertos.c ****    to query the size of free heap space that remains (although it does not
 196:Core/Src/freertos.c ****    provide information on how the remaining heap might be fragmented). */
 197:Core/Src/freertos.c **** }
 198:Core/Src/freertos.c **** /* USER CODE END 5 */
 199:Core/Src/freertos.c **** 
 200:Core/Src/freertos.c **** /* USER CODE BEGIN DAEMON_TASK_STARTUP_HOOK */
 201:Core/Src/freertos.c **** void vApplicationDaemonTaskStartupHook(void)
 202:Core/Src/freertos.c **** {
 203:Core/Src/freertos.c **** }
ARM GAS  /tmp/ccFu8X3s.s 			page 5


 204:Core/Src/freertos.c **** /* USER CODE END DAEMON_TASK_STARTUP_HOOK */
 205:Core/Src/freertos.c **** 
 206:Core/Src/freertos.c **** /**
 207:Core/Src/freertos.c ****   * @brief  FreeRTOS initialization
 208:Core/Src/freertos.c ****   * @param  None
 209:Core/Src/freertos.c ****   * @retval None
 210:Core/Src/freertos.c ****   */
 211:Core/Src/freertos.c **** void MX_FREERTOS_Init(void) {
 212:Core/Src/freertos.c ****   /* USER CODE BEGIN Init */
 213:Core/Src/freertos.c **** 
 214:Core/Src/freertos.c ****   /* USER CODE END Init */
 215:Core/Src/freertos.c **** 
 216:Core/Src/freertos.c ****   /* USER CODE BEGIN RTOS_MUTEX */
 217:Core/Src/freertos.c ****   /* add mutexes, ... */
 218:Core/Src/freertos.c ****   /* USER CODE END RTOS_MUTEX */
 219:Core/Src/freertos.c **** 
 220:Core/Src/freertos.c ****   /* USER CODE BEGIN RTOS_SEMAPHORES */
 221:Core/Src/freertos.c ****   /* add semaphores, ... */
 222:Core/Src/freertos.c ****   /* USER CODE END RTOS_SEMAPHORES */
 223:Core/Src/freertos.c **** 
 224:Core/Src/freertos.c ****   /* USER CODE BEGIN RTOS_TIMERS */
 225:Core/Src/freertos.c ****   /* start timers, add new ones, ... */
 226:Core/Src/freertos.c ****   /* USER CODE END RTOS_TIMERS */
 227:Core/Src/freertos.c **** 
 228:Core/Src/freertos.c ****   /* USER CODE BEGIN RTOS_QUEUES */
 229:Core/Src/freertos.c ****   /* add queues, ... */
 230:Core/Src/freertos.c ****   /* USER CODE END RTOS_QUEUES */
 231:Core/Src/freertos.c **** 
 232:Core/Src/freertos.c ****   /* Create the thread(s) */
 233:Core/Src/freertos.c ****   /* creation of Task_Initialize */
 234:Core/Src/freertos.c ****   Task_InitializeHandle = osThreadNew(InitializeTask, NULL, &Task_Initialize_attributes);
 235:Core/Src/freertos.c **** 
 236:Core/Src/freertos.c ****   /* creation of Task_Sensor */
 237:Core/Src/freertos.c ****   Task_SensorHandle = osThreadNew(SensorAcquisitionTask, NULL, &Task_Sensor_attributes);
 238:Core/Src/freertos.c **** 
 239:Core/Src/freertos.c ****   /* creation of Task_Interact */
 240:Core/Src/freertos.c ****   Task_InteractHandle = osThreadNew(ProtocolProcessTask, NULL, &Task_Interact_attributes);
 241:Core/Src/freertos.c **** 
 242:Core/Src/freertos.c ****   /* creation of Task_Monitor */
 243:Core/Src/freertos.c ****   Task_MonitorHandle = osThreadNew(SystemGuardianTask, NULL, &Task_Monitor_attributes);
 244:Core/Src/freertos.c **** 
 245:Core/Src/freertos.c ****   /* creation of Task_Display */
 246:Core/Src/freertos.c ****   Task_DisplayHandle = osThreadNew(UserInterfaceTask, NULL, &Task_Display_attributes);
 247:Core/Src/freertos.c **** 
 248:Core/Src/freertos.c ****   /* creation of Task_Motion */
 249:Core/Src/freertos.c ****   Task_MotionHandle = osThreadNew(MotorControlTask, NULL, &Task_Motion_attributes);
 250:Core/Src/freertos.c **** 
 251:Core/Src/freertos.c ****   /* USER CODE BEGIN RTOS_THREADS */
 252:Core/Src/freertos.c ****   /* add threads, ... */
 253:Core/Src/freertos.c ****   /* USER CODE END RTOS_THREADS */
 254:Core/Src/freertos.c **** 
 255:Core/Src/freertos.c ****   /* USER CODE BEGIN RTOS_EVENTS */
 256:Core/Src/freertos.c ****   /* add events, ... */
 257:Core/Src/freertos.c ****   /* USER CODE END RTOS_EVENTS */
 258:Core/Src/freertos.c **** 
 259:Core/Src/freertos.c **** }
 260:Core/Src/freertos.c **** 
ARM GAS  /tmp/ccFu8X3s.s 			page 6


 261:Core/Src/freertos.c **** /* USER CODE BEGIN Header_InitializeTask */
 262:Core/Src/freertos.c **** /**
 263:Core/Src/freertos.c ****   * @brief  Function implementing the Task_Initialize thread.
 264:Core/Src/freertos.c ****   * @param  argument: Not used
 265:Core/Src/freertos.c ****   * @retval None
 266:Core/Src/freertos.c ****   */
 267:Core/Src/freertos.c **** /* USER CODE END Header_InitializeTask */
 268:Core/Src/freertos.c **** void InitializeTask(void *argument)
 269:Core/Src/freertos.c **** {
  27              		.loc 1 269 1 view -0
  28              		.cfi_startproc
  29              		@ Volatile: function does not return.
  30              		@ args = 0, pretend = 0, frame = 0
  31              		@ frame_needed = 0, uses_anonymous_args = 0
  32              	.LVL0:
  33              		.loc 1 269 1 is_stmt 0 view .LVU1
  34 0000 08B5     		push	{r3, lr}
  35              	.LCFI0:
  36              		.cfi_def_cfa_offset 8
  37              		.cfi_offset 3, -8
  38              		.cfi_offset 14, -4
  39              	.LVL1:
  40              	.L2:
 270:Core/Src/freertos.c ****   /* USER CODE BEGIN InitializeTask */
 271:Core/Src/freertos.c ****   /* Infinite loop */
 272:Core/Src/freertos.c ****   for(;;)
  41              		.loc 1 272 3 is_stmt 1 discriminator 1 view .LVU2
 273:Core/Src/freertos.c ****   {
 274:Core/Src/freertos.c ****     osDelay(1);
  42              		.loc 1 274 5 discriminator 1 view .LVU3
  43 0002 0120     		movs	r0, #1
  44 0004 FFF7FEFF 		bl	osDelay
  45              	.LVL2:
 272:Core/Src/freertos.c ****   {
  46              		.loc 1 272 8 discriminator 1 view .LVU4
  47 0008 FBE7     		b	.L2
  48              		.cfi_endproc
  49              	.LFE75:
  51              		.section	.text.vApplicationIdleHook,"ax",%progbits
  52              		.align	1
  53              		.global	vApplicationIdleHook
  54              		.syntax unified
  55              		.thumb
  56              		.thumb_func
  57              		.fpu softvfp
  59              	vApplicationIdleHook:
  60              	.LFB69:
 147:Core/Src/freertos.c ****    /* vApplicationIdleHook() will only be called if configUSE_IDLE_HOOK is set
  61              		.loc 1 147 1 view -0
  62              		.cfi_startproc
  63              		@ args = 0, pretend = 0, frame = 0
  64              		@ frame_needed = 0, uses_anonymous_args = 0
  65              		@ link register save eliminated.
 157:Core/Src/freertos.c **** /* USER CODE END 2 */
  66              		.loc 1 157 1 view .LVU6
  67 0000 7047     		bx	lr
  68              		.cfi_endproc
ARM GAS  /tmp/ccFu8X3s.s 			page 7


  69              	.LFE69:
  71              		.section	.text.vApplicationTickHook,"ax",%progbits
  72              		.align	1
  73              		.global	vApplicationTickHook
  74              		.syntax unified
  75              		.thumb
  76              		.thumb_func
  77              		.fpu softvfp
  79              	vApplicationTickHook:
  80              	.LFB70:
 162:Core/Src/freertos.c ****    /* This function will be called by each tick interrupt if
  81              		.loc 1 162 1 view -0
  82              		.cfi_startproc
  83              		@ args = 0, pretend = 0, frame = 0
  84              		@ frame_needed = 0, uses_anonymous_args = 0
  85              		@ link register save eliminated.
 168:Core/Src/freertos.c **** /* USER CODE END 3 */
  86              		.loc 1 168 1 view .LVU8
  87 0000 7047     		bx	lr
  88              		.cfi_endproc
  89              	.LFE70:
  91              		.section	.text.vApplicationStackOverflowHook,"ax",%progbits
  92              		.align	1
  93              		.global	vApplicationStackOverflowHook
  94              		.syntax unified
  95              		.thumb
  96              		.thumb_func
  97              		.fpu softvfp
  99              	vApplicationStackOverflowHook:
 100              	.LFB71:
 173:Core/Src/freertos.c ****    /* Run time stack overflow checking is performed if
 101              		.loc 1 173 1 view -0
 102              		.cfi_startproc
 103              		@ Volatile: function does not return.
 104              		@ args = 0, pretend = 0, frame = 0
 105              		@ frame_needed = 0, uses_anonymous_args = 0
 106              	.LVL3:
 173:Core/Src/freertos.c ****    /* Run time stack overflow checking is performed if
 107              		.loc 1 173 1 is_stmt 0 view .LVU10
 108 0000 08B5     		push	{r3, lr}
 109              	.LCFI1:
 110              		.cfi_def_cfa_offset 8
 111              		.cfi_offset 3, -8
 112              		.cfi_offset 14, -4
 113              	.LVL4:
 114              	.L7:
 177:Core/Src/freertos.c ****       HAL_GPIO_TogglePin(GPIOF, GPIO_PIN_5); // 发生栈溢出时，PC13 翻转，方便调试
 115              		.loc 1 177 4 is_stmt 1 discriminator 1 view .LVU11
 178:Core/Src/freertos.c ****    }
 116              		.loc 1 178 7 discriminator 1 view .LVU12
 117 0002 2021     		movs	r1, #32
 118 0004 0148     		ldr	r0, .L9
 119 0006 FFF7FEFF 		bl	HAL_GPIO_TogglePin
 120              	.LVL5:
 177:Core/Src/freertos.c ****       HAL_GPIO_TogglePin(GPIOF, GPIO_PIN_5); // 发生栈溢出时，PC13 翻转，方便调试
 121              		.loc 1 177 9 discriminator 1 view .LVU13
 122 000a FAE7     		b	.L7
ARM GAS  /tmp/ccFu8X3s.s 			page 8


 123              	.L10:
 124              		.align	2
 125              	.L9:
 126 000c 001C0140 		.word	1073814528
 127              		.cfi_endproc
 128              	.LFE71:
 130              		.section	.text.vApplicationMallocFailedHook,"ax",%progbits
 131              		.align	1
 132              		.global	vApplicationMallocFailedHook
 133              		.syntax unified
 134              		.thumb
 135              		.thumb_func
 136              		.fpu softvfp
 138              	vApplicationMallocFailedHook:
 139              	.LFB72:
 186:Core/Src/freertos.c ****    /* vApplicationMallocFailedHook() will only be called if
 140              		.loc 1 186 1 view -0
 141              		.cfi_startproc
 142              		@ args = 0, pretend = 0, frame = 0
 143              		@ frame_needed = 0, uses_anonymous_args = 0
 144              		@ link register save eliminated.
 197:Core/Src/freertos.c **** /* USER CODE END 5 */
 145              		.loc 1 197 1 view .LVU15
 146 0000 7047     		bx	lr
 147              		.cfi_endproc
 148              	.LFE72:
 150              		.section	.text.vApplicationDaemonTaskStartupHook,"ax",%progbits
 151              		.align	1
 152              		.global	vApplicationDaemonTaskStartupHook
 153              		.syntax unified
 154              		.thumb
 155              		.thumb_func
 156              		.fpu softvfp
 158              	vApplicationDaemonTaskStartupHook:
 159              	.LFB73:
 202:Core/Src/freertos.c **** }
 160              		.loc 1 202 1 view -0
 161              		.cfi_startproc
 162              		@ args = 0, pretend = 0, frame = 0
 163              		@ frame_needed = 0, uses_anonymous_args = 0
 164              		@ link register save eliminated.
 203:Core/Src/freertos.c **** /* USER CODE END DAEMON_TASK_STARTUP_HOOK */
 165              		.loc 1 203 1 view .LVU17
 166 0000 7047     		bx	lr
 167              		.cfi_endproc
 168              	.LFE73:
 170              		.section	.text.MX_FREERTOS_Init,"ax",%progbits
 171              		.align	1
 172              		.global	MX_FREERTOS_Init
 173              		.syntax unified
 174              		.thumb
 175              		.thumb_func
 176              		.fpu softvfp
 178              	MX_FREERTOS_Init:
 179              	.LFB74:
 211:Core/Src/freertos.c ****   /* USER CODE BEGIN Init */
 180              		.loc 1 211 29 view -0
ARM GAS  /tmp/ccFu8X3s.s 			page 9


 181              		.cfi_startproc
 182              		@ args = 0, pretend = 0, frame = 0
 183              		@ frame_needed = 0, uses_anonymous_args = 0
 184 0000 08B5     		push	{r3, lr}
 185              	.LCFI2:
 186              		.cfi_def_cfa_offset 8
 187              		.cfi_offset 3, -8
 188              		.cfi_offset 14, -4
 234:Core/Src/freertos.c **** 
 189              		.loc 1 234 3 view .LVU19
 234:Core/Src/freertos.c **** 
 190              		.loc 1 234 27 is_stmt 0 view .LVU20
 191 0002 154A     		ldr	r2, .L15
 192 0004 0021     		movs	r1, #0
 193 0006 1548     		ldr	r0, .L15+4
 194 0008 FFF7FEFF 		bl	osThreadNew
 195              	.LVL6:
 234:Core/Src/freertos.c **** 
 196              		.loc 1 234 25 view .LVU21
 197 000c 144B     		ldr	r3, .L15+8
 198 000e 1860     		str	r0, [r3]
 237:Core/Src/freertos.c **** 
 199              		.loc 1 237 3 is_stmt 1 view .LVU22
 237:Core/Src/freertos.c **** 
 200              		.loc 1 237 23 is_stmt 0 view .LVU23
 201 0010 144A     		ldr	r2, .L15+12
 202 0012 0021     		movs	r1, #0
 203 0014 1448     		ldr	r0, .L15+16
 204 0016 FFF7FEFF 		bl	osThreadNew
 205              	.LVL7:
 237:Core/Src/freertos.c **** 
 206              		.loc 1 237 21 view .LVU24
 207 001a 144B     		ldr	r3, .L15+20
 208 001c 1860     		str	r0, [r3]
 240:Core/Src/freertos.c **** 
 209              		.loc 1 240 3 is_stmt 1 view .LVU25
 240:Core/Src/freertos.c **** 
 210              		.loc 1 240 25 is_stmt 0 view .LVU26
 211 001e 144A     		ldr	r2, .L15+24
 212 0020 0021     		movs	r1, #0
 213 0022 1448     		ldr	r0, .L15+28
 214 0024 FFF7FEFF 		bl	osThreadNew
 215              	.LVL8:
 240:Core/Src/freertos.c **** 
 216              		.loc 1 240 23 view .LVU27
 217 0028 134B     		ldr	r3, .L15+32
 218 002a 1860     		str	r0, [r3]
 243:Core/Src/freertos.c **** 
 219              		.loc 1 243 3 is_stmt 1 view .LVU28
 243:Core/Src/freertos.c **** 
 220              		.loc 1 243 24 is_stmt 0 view .LVU29
 221 002c 134A     		ldr	r2, .L15+36
 222 002e 0021     		movs	r1, #0
 223 0030 1348     		ldr	r0, .L15+40
 224 0032 FFF7FEFF 		bl	osThreadNew
 225              	.LVL9:
 243:Core/Src/freertos.c **** 
ARM GAS  /tmp/ccFu8X3s.s 			page 10


 226              		.loc 1 243 22 view .LVU30
 227 0036 134B     		ldr	r3, .L15+44
 228 0038 1860     		str	r0, [r3]
 246:Core/Src/freertos.c **** 
 229              		.loc 1 246 3 is_stmt 1 view .LVU31
 246:Core/Src/freertos.c **** 
 230              		.loc 1 246 24 is_stmt 0 view .LVU32
 231 003a 134A     		ldr	r2, .L15+48
 232 003c 0021     		movs	r1, #0
 233 003e 1348     		ldr	r0, .L15+52
 234 0040 FFF7FEFF 		bl	osThreadNew
 235              	.LVL10:
 246:Core/Src/freertos.c **** 
 236              		.loc 1 246 22 view .LVU33
 237 0044 124B     		ldr	r3, .L15+56
 238 0046 1860     		str	r0, [r3]
 249:Core/Src/freertos.c **** 
 239              		.loc 1 249 3 is_stmt 1 view .LVU34
 249:Core/Src/freertos.c **** 
 240              		.loc 1 249 23 is_stmt 0 view .LVU35
 241 0048 124A     		ldr	r2, .L15+60
 242 004a 0021     		movs	r1, #0
 243 004c 1248     		ldr	r0, .L15+64
 244 004e FFF7FEFF 		bl	osThreadNew
 245              	.LVL11:
 249:Core/Src/freertos.c **** 
 246              		.loc 1 249 21 view .LVU36
 247 0052 124B     		ldr	r3, .L15+68
 248 0054 1860     		str	r0, [r3]
 259:Core/Src/freertos.c **** 
 249              		.loc 1 259 1 view .LVU37
 250 0056 08BD     		pop	{r3, pc}
 251              	.L16:
 252              		.align	2
 253              	.L15:
 254 0058 00000000 		.word	.LANCHOR0
 255 005c 00000000 		.word	InitializeTask
 256 0060 00000000 		.word	.LANCHOR1
 257 0064 00000000 		.word	.LANCHOR2
 258 0068 00000000 		.word	SensorAcquisitionTask
 259 006c 00000000 		.word	.LANCHOR3
 260 0070 00000000 		.word	.LANCHOR4
 261 0074 00000000 		.word	ProtocolProcessTask
 262 0078 00000000 		.word	.LANCHOR5
 263 007c 00000000 		.word	.LANCHOR6
 264 0080 00000000 		.word	SystemGuardianTask
 265 0084 00000000 		.word	.LANCHOR7
 266 0088 00000000 		.word	.LANCHOR8
 267 008c 00000000 		.word	UserInterfaceTask
 268 0090 00000000 		.word	.LANCHOR9
 269 0094 00000000 		.word	.LANCHOR10
 270 0098 00000000 		.word	MotorControlTask
 271 009c 00000000 		.word	.LANCHOR11
 272              		.cfi_endproc
 273              	.LFE74:
 275              		.global	Task_Motion_attributes
 276              		.section	.rodata.str1.4,"aMS",%progbits,1
ARM GAS  /tmp/ccFu8X3s.s 			page 11


 277              		.align	2
 278              	.LC0:
 279 0000 5461736B 		.ascii	"Task_Motion\000"
 279      5F4D6F74 
 279      696F6E00 
 280              		.global	Task_MotionControlBlock
 281              		.global	Task_MotionBuffer
 282              		.global	Task_MotionHandle
 283              		.global	Task_Display_attributes
 284              		.align	2
 285              	.LC1:
 286 000c 5461736B 		.ascii	"Task_Display\000"
 286      5F446973 
 286      706C6179 
 286      00
 287              		.global	Task_DisplayControlBlock
 288              		.global	Task_DisplayBuffer
 289              		.global	Task_DisplayHandle
 290              		.global	Task_Monitor_attributes
 291 0019 000000   		.align	2
 292              	.LC2:
 293 001c 5461736B 		.ascii	"Task_Monitor\000"
 293      5F4D6F6E 
 293      69746F72 
 293      00
 294              		.global	Task_MonitorControlBlock
 295              		.global	Task_MonitorBuffer
 296              		.global	Task_MonitorHandle
 297              		.global	Task_Interact_attributes
 298 0029 000000   		.align	2
 299              	.LC3:
 300 002c 5461736B 		.ascii	"Task_Interact\000"
 300      5F496E74 
 300      65726163 
 300      7400
 301              		.global	Task_InteractControlBlock
 302              		.global	Task_InteractBuffer
 303              		.global	Task_InteractHandle
 304              		.global	Task_Sensor_attributes
 305 003a 0000     		.align	2
 306              	.LC4:
 307 003c 5461736B 		.ascii	"Task_Sensor\000"
 307      5F53656E 
 307      736F7200 
 308              		.global	Task_SensorControlBlock
 309              		.global	Task_SensorBuffer
 310              		.global	Task_SensorHandle
 311              		.global	Task_Initialize_attributes
 312              		.align	2
 313              	.LC5:
 314 0048 5461736B 		.ascii	"Task_Initialize\000"
 314      5F496E69 
 314      7469616C 
 314      697A6500 
 315              		.global	Task_InitializeControlBlock
 316              		.global	Task_InitializeBuffer
 317              		.global	Task_InitializeHandle
ARM GAS  /tmp/ccFu8X3s.s 			page 12


 318              		.section	.bss.Task_DisplayBuffer,"aw",%nobits
 319              		.align	2
 322              	Task_DisplayBuffer:
 323 0000 00000000 		.space	512
 323      00000000 
 323      00000000 
 323      00000000 
 323      00000000 
 324              		.section	.bss.Task_DisplayControlBlock,"aw",%nobits
 325              		.align	2
 328              	Task_DisplayControlBlock:
 329 0000 00000000 		.space	92
 329      00000000 
 329      00000000 
 329      00000000 
 329      00000000 
 330              		.section	.bss.Task_DisplayHandle,"aw",%nobits
 331              		.align	2
 332              		.set	.LANCHOR9,. + 0
 335              	Task_DisplayHandle:
 336 0000 00000000 		.space	4
 337              		.section	.bss.Task_InitializeBuffer,"aw",%nobits
 338              		.align	2
 341              	Task_InitializeBuffer:
 342 0000 00000000 		.space	512
 342      00000000 
 342      00000000 
 342      00000000 
 342      00000000 
 343              		.section	.bss.Task_InitializeControlBlock,"aw",%nobits
 344              		.align	2
 347              	Task_InitializeControlBlock:
 348 0000 00000000 		.space	92
 348      00000000 
 348      00000000 
 348      00000000 
 348      00000000 
 349              		.section	.bss.Task_InitializeHandle,"aw",%nobits
 350              		.align	2
 351              		.set	.LANCHOR1,. + 0
 354              	Task_InitializeHandle:
 355 0000 00000000 		.space	4
 356              		.section	.bss.Task_InteractBuffer,"aw",%nobits
 357              		.align	2
 360              	Task_InteractBuffer:
 361 0000 00000000 		.space	12000
 361      00000000 
 361      00000000 
 361      00000000 
 361      00000000 
 362              		.section	.bss.Task_InteractControlBlock,"aw",%nobits
 363              		.align	2
 366              	Task_InteractControlBlock:
 367 0000 00000000 		.space	92
 367      00000000 
 367      00000000 
 367      00000000 
ARM GAS  /tmp/ccFu8X3s.s 			page 13


 367      00000000 
 368              		.section	.bss.Task_InteractHandle,"aw",%nobits
 369              		.align	2
 370              		.set	.LANCHOR5,. + 0
 373              	Task_InteractHandle:
 374 0000 00000000 		.space	4
 375              		.section	.bss.Task_MonitorBuffer,"aw",%nobits
 376              		.align	2
 379              	Task_MonitorBuffer:
 380 0000 00000000 		.space	512
 380      00000000 
 380      00000000 
 380      00000000 
 380      00000000 
 381              		.section	.bss.Task_MonitorControlBlock,"aw",%nobits
 382              		.align	2
 385              	Task_MonitorControlBlock:
 386 0000 00000000 		.space	92
 386      00000000 
 386      00000000 
 386      00000000 
 386      00000000 
 387              		.section	.bss.Task_MonitorHandle,"aw",%nobits
 388              		.align	2
 389              		.set	.LANCHOR7,. + 0
 392              	Task_MonitorHandle:
 393 0000 00000000 		.space	4
 394              		.section	.bss.Task_MotionBuffer,"aw",%nobits
 395              		.align	2
 398              	Task_MotionBuffer:
 399 0000 00000000 		.space	2048
 399      00000000 
 399      00000000 
 399      00000000 
 399      00000000 
 400              		.section	.bss.Task_MotionControlBlock,"aw",%nobits
 401              		.align	2
 404              	Task_MotionControlBlock:
 405 0000 00000000 		.space	92
 405      00000000 
 405      00000000 
 405      00000000 
 405      00000000 
 406              		.section	.bss.Task_MotionHandle,"aw",%nobits
 407              		.align	2
 408              		.set	.LANCHOR11,. + 0
 411              	Task_MotionHandle:
 412 0000 00000000 		.space	4
 413              		.section	.bss.Task_SensorBuffer,"aw",%nobits
 414              		.align	2
 417              	Task_SensorBuffer:
 418 0000 00000000 		.space	512
 418      00000000 
 418      00000000 
 418      00000000 
 418      00000000 
 419              		.section	.bss.Task_SensorControlBlock,"aw",%nobits
ARM GAS  /tmp/ccFu8X3s.s 			page 14


 420              		.align	2
 423              	Task_SensorControlBlock:
 424 0000 00000000 		.space	92
 424      00000000 
 424      00000000 
 424      00000000 
 424      00000000 
 425              		.section	.bss.Task_SensorHandle,"aw",%nobits
 426              		.align	2
 427              		.set	.LANCHOR3,. + 0
 430              	Task_SensorHandle:
 431 0000 00000000 		.space	4
 432              		.section	.rodata.Task_Display_attributes,"a"
 433              		.align	2
 434              		.set	.LANCHOR8,. + 0
 437              	Task_Display_attributes:
 438 0000 0C000000 		.word	.LC1
 439 0004 00000000 		.space	4
 440 0008 00000000 		.word	Task_DisplayControlBlock
 441 000c 5C000000 		.word	92
 442 0010 00000000 		.word	Task_DisplayBuffer
 443 0014 00020000 		.word	512
 444 0018 08000000 		.word	8
 445 001c 00000000 		.space	8
 445      00000000 
 446              		.section	.rodata.Task_Initialize_attributes,"a"
 447              		.align	2
 448              		.set	.LANCHOR0,. + 0
 451              	Task_Initialize_attributes:
 452 0000 48000000 		.word	.LC5
 453 0004 00000000 		.space	4
 454 0008 00000000 		.word	Task_InitializeControlBlock
 455 000c 5C000000 		.word	92
 456 0010 00000000 		.word	Task_InitializeBuffer
 457 0014 00020000 		.word	512
 458 0018 37000000 		.word	55
 459 001c 00000000 		.space	8
 459      00000000 
 460              		.section	.rodata.Task_Interact_attributes,"a"
 461              		.align	2
 462              		.set	.LANCHOR4,. + 0
 465              	Task_Interact_attributes:
 466 0000 2C000000 		.word	.LC3
 467 0004 00000000 		.space	4
 468 0008 00000000 		.word	Task_InteractControlBlock
 469 000c 5C000000 		.word	92
 470 0010 00000000 		.word	Task_InteractBuffer
 471 0014 E02E0000 		.word	12000
 472 0018 18000000 		.word	24
 473 001c 00000000 		.space	8
 473      00000000 
 474              		.section	.rodata.Task_Monitor_attributes,"a"
 475              		.align	2
 476              		.set	.LANCHOR6,. + 0
 479              	Task_Monitor_attributes:
 480 0000 1C000000 		.word	.LC2
 481 0004 00000000 		.space	4
ARM GAS  /tmp/ccFu8X3s.s 			page 15


 482 0008 00000000 		.word	Task_MonitorControlBlock
 483 000c 5C000000 		.word	92
 484 0010 00000000 		.word	Task_MonitorBuffer
 485 0014 00020000 		.word	512
 486 0018 10000000 		.word	16
 487 001c 00000000 		.space	8
 487      00000000 
 488              		.section	.rodata.Task_Motion_attributes,"a"
 489              		.align	2
 490              		.set	.LANCHOR10,. + 0
 493              	Task_Motion_attributes:
 494 0000 00000000 		.word	.LC0
 495 0004 00000000 		.space	4
 496 0008 00000000 		.word	Task_MotionControlBlock
 497 000c 5C000000 		.word	92
 498 0010 00000000 		.word	Task_MotionBuffer
 499 0014 00080000 		.word	2048
 500 0018 08000000 		.word	8
 501 001c 00000000 		.space	8
 501      00000000 
 502              		.section	.rodata.Task_Sensor_attributes,"a"
 503              		.align	2
 504              		.set	.LANCHOR2,. + 0
 507              	Task_Sensor_attributes:
 508 0000 3C000000 		.word	.LC4
 509 0004 00000000 		.space	4
 510 0008 00000000 		.word	Task_SensorControlBlock
 511 000c 5C000000 		.word	92
 512 0010 00000000 		.word	Task_SensorBuffer
 513 0014 00020000 		.word	512
 514 0018 28000000 		.word	40
 515 001c 00000000 		.space	8
 515      00000000 
 516              		.text
 517              	.Letext0:
 518              		.file 2 "/usr/lib/gcc/arm-none-eabi/10.3.1/include/stdint.h"
 519              		.file 3 "Middlewares/Third_Party/FreeRTOS/Source/portable/GCC/ARM_CM3/portmacro.h"
 520              		.file 4 "Middlewares/Third_Party/FreeRTOS/Source/include/FreeRTOS.h"
 521              		.file 5 "Middlewares/Third_Party/FreeRTOS/Source/include/task.h"
 522              		.file 6 "Drivers/CMSIS/Device/ST/STM32F1xx/Include/stm32f103xe.h"
 523              		.file 7 "Middlewares/Third_Party/FreeRTOS/Source/CMSIS_RTOS_V2/cmsis_os2.h"
 524              		.file 8 "Drivers/STM32F1xx_HAL_Driver/Inc/stm32f1xx_hal_gpio.h"
ARM GAS  /tmp/ccFu8X3s.s 			page 16

