ARM GAS  /tmp/ccYbGAiO.s 			page 1


   1              		.cpu cortex-m3
   2              		.eabi_attribute 20, 1
   3              		.eabi_attribute 21, 1
   4              		.eabi_attribute 23, 3
   5              		.eabi_attribute 24, 1
   6              		.eabi_attribute 25, 1
   7              		.eabi_attribute 26, 1
   8              		.eabi_attribute 30, 1
   9              		.eabi_attribute 34, 1
  10              		.eabi_attribute 18, 4
  11              		.file	"oled.c"
  12              		.text
  13              	.Ltext0:
  14              		.cfi_sections	.debug_frame
  15              		.section	.text.OLED_Pow,"ax",%progbits
  16              		.align	1
  17              		.global	OLED_Pow
  18              		.arch armv7-m
  19              		.syntax unified
  20              		.thumb
  21              		.thumb_func
  22              		.fpu softvfp
  24              	OLED_Pow:
  25              	.LVL0:
  26              	.LFB65:
  27              		.file 1 "Hardware/OLED/oled.c"
   1:Hardware/OLED/oled.c **** #include "oled.h"
   2:Hardware/OLED/oled.c **** #include "oled_font.h"    // еӯ—еә“ж–Үд»¶
   3:Hardware/OLED/oled.c **** 
   4:Hardware/OLED/oled.c **** // ж ёеҝғпјҡе®ҡд№үдёҖдёӘеҶ…йғЁжҢҮй’ҲпјҢз”ЁжқҘи®°еҪ•еҪ“еүҚ OLED дҪҝз”Ёзҡ„жҳҜе“ӘжқЎ I2C жҖ»зәҝ
   5:Hardware/OLED/oled.c **** static SoftI2C_Type *g_oled_i2c = NULL; 
   6:Hardware/OLED/oled.c **** static uint8_t g_oled_addr = 0x78; // йЎәдҫҝжҠҠең°еқҖд№ҹеӯҳдәҶ
   7:Hardware/OLED/oled.c **** 
   8:Hardware/OLED/oled.c **** /* * е…ЁеұҖжҳҫеӯҳж•°з»„ (Buffer)
   9:Hardware/OLED/oled.c ****  * ж јејҸпјҡ8йЎө(иЎҢ) x 128еҲ—
  10:Hardware/OLED/oled.c ****  * дҪңз”ЁпјҡжүҖжңүзҡ„з”»зӮ№гҖҒеҶҷеӯ—йғҪе…Ҳж“ҚдҪңиҝҷдёӘж•°з»„пјҢжңҖеҗҺйҖҡиҝҮ Refresh еҸ‘йҖҒз»ҷеұҸе№•
  11:Hardware/OLED/oled.c ****  */
  12:Hardware/OLED/oled.c **** uint8_t OLED_GRAM[8][128];
  13:Hardware/OLED/oled.c **** 
  14:Hardware/OLED/oled.c **** /* ============================================================
  15:Hardware/OLED/oled.c ****    [еҶ…йғЁе·Ҙе…·еҮҪж•°] дёҚеҜ№еӨ–ејҖж”ҫпјҢд»…жң¬ж–Үд»¶дҪҝз”Ё
  16:Hardware/OLED/oled.c ****    ============================================================ */
  17:Hardware/OLED/oled.c **** 
  18:Hardware/OLED/oled.c **** // иҫ“е…Ҙ: m^n
  19:Hardware/OLED/oled.c **** uint32_t OLED_Pow(uint8_t m, uint8_t n) {
  28              		.loc 1 19 41 view -0
  29              		.cfi_startproc
  30              		@ args = 0, pretend = 0, frame = 0
  31              		@ frame_needed = 0, uses_anonymous_args = 0
  32              		@ link register save eliminated.
  33              		.loc 1 19 41 is_stmt 0 view .LVU1
  34 0000 0246     		mov	r2, r0
  20:Hardware/OLED/oled.c ****     uint32_t result = 1;
  35              		.loc 1 20 5 is_stmt 1 view .LVU2
  36              	.LVL1:
  21:Hardware/OLED/oled.c ****     while(n--) result *= m;
  37              		.loc 1 21 5 view .LVU3
ARM GAS  /tmp/ccYbGAiO.s 			page 2


  20:Hardware/OLED/oled.c ****     uint32_t result = 1;
  38              		.loc 1 20 14 is_stmt 0 view .LVU4
  39 0002 0120     		movs	r0, #1
  40              	.LVL2:
  41              		.loc 1 21 10 view .LVU5
  42 0004 02E0     		b	.L2
  43              	.LVL3:
  44              	.L3:
  45              		.loc 1 21 16 is_stmt 1 discriminator 2 view .LVU6
  46              		.loc 1 21 23 is_stmt 0 discriminator 2 view .LVU7
  47 0006 02FB00F0 		mul	r0, r2, r0
  48              	.LVL4:
  49              		.loc 1 21 12 discriminator 2 view .LVU8
  50 000a 1946     		mov	r1, r3
  51              	.LVL5:
  52              	.L2:
  53              		.loc 1 21 10 is_stmt 1 discriminator 1 view .LVU9
  54              		.loc 1 21 12 is_stmt 0 discriminator 1 view .LVU10
  55 000c 4B1E     		subs	r3, r1, #1
  56 000e DBB2     		uxtb	r3, r3
  57              	.LVL6:
  58              		.loc 1 21 10 discriminator 1 view .LVU11
  59 0010 0029     		cmp	r1, #0
  60 0012 F8D1     		bne	.L3
  22:Hardware/OLED/oled.c ****     return result;
  61              		.loc 1 22 5 is_stmt 1 view .LVU12
  23:Hardware/OLED/oled.c **** }
  62              		.loc 1 23 1 is_stmt 0 view .LVU13
  63 0014 7047     		bx	lr
  64              		.cfi_endproc
  65              	.LFE65:
  67              		.section	.text.Show_Num_Core,"ax",%progbits
  68              		.align	1
  69              		.syntax unified
  70              		.thumb
  71              		.thumb_func
  72              		.fpu softvfp
  74              	Show_Num_Core:
  75              	.LVL7:
  76              	.LFB79:
  24:Hardware/OLED/oled.c **** 
  25:Hardware/OLED/oled.c **** // [з§»жӨҚиҜҙжҳҺ] I2CеҶҷе‘Ҫд»ӨжҺҘеҸЈ
  26:Hardware/OLED/oled.c **** void OLED_Write_Cmd(uint8_t Cmd) {
  27:Hardware/OLED/oled.c ****     MyI2C_Start(g_oled_i2c);
  28:Hardware/OLED/oled.c ****     MyI2C_SendByte(g_oled_i2c, g_oled_addr);
  29:Hardware/OLED/oled.c ****     MyI2C_WaitAck(g_oled_i2c);
  30:Hardware/OLED/oled.c ****     MyI2C_SendByte(g_oled_i2c, 0x00); // 0x00 иЎЁзӨәеҗҺйқўжҳҜе‘Ҫд»Ө
  31:Hardware/OLED/oled.c ****     MyI2C_WaitAck(g_oled_i2c);
  32:Hardware/OLED/oled.c ****     MyI2C_SendByte(g_oled_i2c, Cmd);
  33:Hardware/OLED/oled.c ****     MyI2C_WaitAck(g_oled_i2c);
  34:Hardware/OLED/oled.c ****     MyI2C_Stop(g_oled_i2c);
  35:Hardware/OLED/oled.c **** }
  36:Hardware/OLED/oled.c **** 
  37:Hardware/OLED/oled.c **** // [з§»жӨҚиҜҙжҳҺ] I2CеҶҷж•°жҚ®жҺҘеҸЈ
  38:Hardware/OLED/oled.c **** void OLED_Write_Data(uint8_t Data) {
  39:Hardware/OLED/oled.c ****     MyI2C_Start(g_oled_i2c);
  40:Hardware/OLED/oled.c ****     MyI2C_SendByte(g_oled_i2c, g_oled_addr);
ARM GAS  /tmp/ccYbGAiO.s 			page 3


  41:Hardware/OLED/oled.c ****     MyI2C_WaitAck(g_oled_i2c);
  42:Hardware/OLED/oled.c ****     MyI2C_SendByte(g_oled_i2c, 0x40); // 0x40 иЎЁзӨәеҗҺйқўжҳҜж•°жҚ®
  43:Hardware/OLED/oled.c ****     MyI2C_WaitAck(g_oled_i2c);
  44:Hardware/OLED/oled.c ****     MyI2C_SendByte(g_oled_i2c, Data);
  45:Hardware/OLED/oled.c ****     MyI2C_WaitAck(g_oled_i2c);
  46:Hardware/OLED/oled.c ****     MyI2C_Stop(g_oled_i2c);
  47:Hardware/OLED/oled.c **** }
  48:Hardware/OLED/oled.c **** 
  49:Hardware/OLED/oled.c **** /* ============================================================
  50:Hardware/OLED/oled.c ****    [ж ёеҝғй©ұеҠЁеұӮ] еҲқе§ӢеҢ–дёҺеҲ·ж–°йҖ»иҫ‘
  51:Hardware/OLED/oled.c ****    ============================================================ */
  52:Hardware/OLED/oled.c **** 
  53:Hardware/OLED/oled.c **** void OLED_Init(SoftI2C_Type *i2c_bus) {
  54:Hardware/OLED/oled.c ****     //HAL_Delay(800);
  55:Hardware/OLED/oled.c **** 
  56:Hardware/OLED/oled.c ****     g_oled_i2c = i2c_bus;
  57:Hardware/OLED/oled.c **** 
  58:Hardware/OLED/oled.c ****     MyI2C_Init(g_oled_i2c);
  59:Hardware/OLED/oled.c **** 
  60:Hardware/OLED/oled.c ****     const uint8_t Init_Cmds[] = {
  61:Hardware/OLED/oled.c ****         0xAE, 0xAE, 0xAE, 0xAE, 0xAE,
  62:Hardware/OLED/oled.c ****         
  63:Hardware/OLED/oled.c ****         0xAE,       // е…іжҳҫзӨә
  64:Hardware/OLED/oled.c ****         0x00, 0x10, // и®ҫзҪ®еҲ—ең°еқҖ (е•Ҷе®¶д»Јз ҒйҮҢзҡ„пјҢиҷҪз„¶ж°ҙе№іжЁЎејҸдёӢдјҡиў«иҰҶзӣ–пјҢдҪ
  65:Hardware/OLED/oled.c ****         0xB0,       // йЎөең°еқҖ
  66:Hardware/OLED/oled.c ****         0x40,       // иө·е§ӢиЎҢ   0x40 еҲ° 0x7F (0~63) ж”ҫиҝӣforеҸҜд»Ҙе®һзҺ°дёҠдёӢж»ҡеҠЁзү№ж•Ҳ
  67:Hardware/OLED/oled.c ****         0x81, 0xFF, // гҖҗе•Ҷе®¶дҝ®ж”№гҖ‘еҜ№жҜ”еәҰзӣҙжҺҘжӢүж»ЎеҲ° 0xFF (жңҖдә®)пјҒ
  68:Hardware/OLED/oled.c ****                     // д№ӢеүҚжҳҜ CFпјҢзҺ°еңЁж”№ FFпјҢдҝқиҜҒеӨҹдә®
  69:Hardware/OLED/oled.c ****         0xA6,           // жӯЈеёёжҳҫзӨә 0xA6  // еҸҚиүІжҳҫзӨә 0xA7
  70:Hardware/OLED/oled.c ****         0xA8, 0x3F, // еӨҡи·ҜеӨҚз”Ё    жүҖз”ЁOLEDе®Ҫй«ҳ
  71:Hardware/OLED/oled.c ****         0xA1,          // е·ҰеҸізҝ»иҪ¬ 0xA1    0xA0
  72:Hardware/OLED/oled.c ****         0xC8,          // дёҠдёӢзҝ»иҪ¬ 0xC8    0xC0
  73:Hardware/OLED/oled.c ****         0xD3, 0x00, // еҒҸз§»    ејӮжҖ§еұҸж ЎеҮҶиЎҢ
  74:Hardware/OLED/oled.c ****         // --- е•Ҷе®¶зү№жңүй…ҚзҪ®еҢә ---
  75:Hardware/OLED/oled.c ****         0xD5, 0x80, // ж—¶й’ҹеҲҶйў‘ (еҝ…йЎ»жңүпјҒ)  0x80 жҳҜй»ҳи®ӨеҖјпјҲзәҰ 100fpsпјү
  76:Hardware/OLED/oled.c ****         0xD8, 0x05, // еҫҲеӨҡеӣҪдә§е»үд»·еұҸз”Ёзҡ„жҳҜе…је®№иҠҜзүҮпјҲеҰӮ SH1106 жҲ–е…¶д»–йӯ”ж”№зүҲпј
  77:Hardware/OLED/oled.c ****         0xD9, 0xF1, // йў„е……з”ө      еұҸе№•дә®еәҰдёҚеқҮи°ғиҠӮ 0xF1 жҲ– 0x22
  78:Hardware/OLED/oled.c ****         0xDA, 0x12, // COMеј•и„ҡ  зЎ¬ж ёзҡ„зү©зҗҶй…ҚзҪ®пјҢжҸҸиҝ°дәҶзҺ»з’ғеҹәжқҝдёҠзҡ„еј•и„ҡжҳҜвҖңдә
  79:Hardware/OLED/oled.c ****         0xDB, 0x30, // VCOMH    и°ғиҠӮ OLED еғҸзҙ зӮ№еңЁвҖңзҶ„зҒӯвҖқзҠ¶жҖҒдёӢзҡ„жҲӘжӯўз”өеҺӢ    0x2
  80:Hardware/OLED/oled.c ****         0x8D, 0x14, // з”өиҚ·жіө (еҝ…йЎ»жҳҜ 14)   ејҖеҗҜеҚҮеҺӢз”өи·Ҝ
  81:Hardware/OLED/oled.c ****         // --- йҖӮй…ҚдҪ зҡ„ Refresh еҮҪж•° ---
  82:Hardware/OLED/oled.c ****         0x20, 0x00, // е•Ҷе®¶д»Јз ҒжІЎеҶҷиҝҷдёӘпјҢжҳҜеӣ дёәд»–з”ЁйЎөеҶҷе…ҘгҖӮ
  83:Hardware/OLED/oled.c ****                     // дҪҶдҪ зҡ„д»Јз ҒжҳҜе…ЁеұҸеҲ·ж–°пјҢеҝ…йЎ»еҠ иҝҷдёӘвҖңж°ҙе№іеҜ»еқҖжЁЎејҸвҖқпјҢ
  84:Hardware/OLED/oled.c ****                     // еҗҰеҲҷдҪ зҡ„ OLED_Refresh дјҡд№ұз ҒпјҒ
  85:Hardware/OLED/oled.c ****         0xAF        // ејҖжҳҫзӨә
  86:Hardware/OLED/oled.c ****     };
  87:Hardware/OLED/oled.c **** 
  88:Hardware/OLED/oled.c ****     uint8_t i;
  89:Hardware/OLED/oled.c ****     MyI2C_Start(g_oled_i2c);
  90:Hardware/OLED/oled.c ****     MyI2C_SendByte(g_oled_i2c, g_oled_addr);
  91:Hardware/OLED/oled.c ****     MyI2C_WaitAck(g_oled_i2c);
  92:Hardware/OLED/oled.c ****     MyI2C_SendByte(g_oled_i2c, 0x00); // ејҖеҗҜиҝһз»ӯе‘Ҫд»ӨжЁЎејҸ
  93:Hardware/OLED/oled.c ****     MyI2C_WaitAck(g_oled_i2c);
  94:Hardware/OLED/oled.c ****     for(i = 0; i < sizeof(Init_Cmds); i++) {
  95:Hardware/OLED/oled.c ****         MyI2C_SendByte(g_oled_i2c, Init_Cmds[i]);
  96:Hardware/OLED/oled.c ****         MyI2C_WaitAck(g_oled_i2c);
  97:Hardware/OLED/oled.c ****     }
ARM GAS  /tmp/ccYbGAiO.s 			page 4


  98:Hardware/OLED/oled.c ****     MyI2C_Stop(g_oled_i2c);
  99:Hardware/OLED/oled.c ****     
 100:Hardware/OLED/oled.c ****     OLED_Clear(1); // дёҠз”өжё…еұҸ
 101:Hardware/OLED/oled.c **** }
 102:Hardware/OLED/oled.c **** 
 103:Hardware/OLED/oled.c **** // е…ЁеұҸеҲ·ж–°
 104:Hardware/OLED/oled.c **** void OLED_Refresh(void) {
 105:Hardware/OLED/oled.c ****     uint8_t *pRAM = (uint8_t *)OLED_GRAM; 
 106:Hardware/OLED/oled.c ****     uint16_t i;
 107:Hardware/OLED/oled.c **** 
 108:Hardware/OLED/oled.c ****     // 1. и®ҫзҪ®еҶҷе…ҘзӘ—еҸЈдёәе…ЁеұҸ
 109:Hardware/OLED/oled.c ****     OLED_Write_Cmd(0x21); OLED_Write_Cmd(0x00); OLED_Write_Cmd(0x7F);
 110:Hardware/OLED/oled.c ****     OLED_Write_Cmd(0x22); OLED_Write_Cmd(0x00); OLED_Write_Cmd(0x07);
 111:Hardware/OLED/oled.c **** 
 112:Hardware/OLED/oled.c ****     // 2. иҝһз»ӯеҶҷе…Ҙ1024дёӘеӯ—иҠӮзҡ„ж•°жҚ®
 113:Hardware/OLED/oled.c ****     MyI2C_Start(g_oled_i2c);
 114:Hardware/OLED/oled.c ****     MyI2C_SendByte(g_oled_i2c, g_oled_addr); MyI2C_WaitAck(g_oled_i2c);
 115:Hardware/OLED/oled.c ****     MyI2C_SendByte(g_oled_i2c, 0x40);      MyI2C_WaitAck(g_oled_i2c); // ж•°жҚ®жЁЎејҸ
 116:Hardware/OLED/oled.c **** 
 117:Hardware/OLED/oled.c ****     for (i = 0; i < 1024; i++) {
 118:Hardware/OLED/oled.c ****         MyI2C_SendByte(g_oled_i2c, pRAM[i]);
 119:Hardware/OLED/oled.c ****         MyI2C_WaitAck(g_oled_i2c);
 120:Hardware/OLED/oled.c ****     }
 121:Hardware/OLED/oled.c ****     MyI2C_Stop(g_oled_i2c);
 122:Hardware/OLED/oled.c **** }
 123:Hardware/OLED/oled.c **** 
 124:Hardware/OLED/oled.c **** // еұҖйғЁеҲ·ж–° (жҸҗй«ҳеё§зҺҮзҡ„е…ій”®)
 125:Hardware/OLED/oled.c **** void OLED_Refresh_Part(uint8_t x, uint8_t y, uint8_t w, uint8_t h) {
 126:Hardware/OLED/oled.c ****     uint8_t i, n;
 127:Hardware/OLED/oled.c **** 
 128:Hardware/OLED/oled.c ****     // 1. и®ҫзҪ®йҷҗеҲ¶зӘ—еҸЈ (еҲ©з”ЁзЎ¬д»¶зү№жҖ§иҮӘеҠЁжҚўиЎҢ)
 129:Hardware/OLED/oled.c ****     OLED_Write_Cmd(0x21); OLED_Write_Cmd(x); OLED_Write_Cmd(x + w - 1);
 130:Hardware/OLED/oled.c ****     OLED_Write_Cmd(0x22); OLED_Write_Cmd(y); OLED_Write_Cmd(y + h - 1);
 131:Hardware/OLED/oled.c **** 
 132:Hardware/OLED/oled.c ****     // 2. еҶҷе…ҘзӘ—еҸЈеҶ…зҡ„ж•°жҚ®
 133:Hardware/OLED/oled.c ****     MyI2C_Start(g_oled_i2c);
 134:Hardware/OLED/oled.c ****     MyI2C_SendByte(g_oled_i2c, g_oled_addr); MyI2C_WaitAck(g_oled_i2c);
 135:Hardware/OLED/oled.c ****     MyI2C_SendByte(g_oled_i2c, 0x40);      MyI2C_WaitAck(g_oled_i2c);
 136:Hardware/OLED/oled.c **** 
 137:Hardware/OLED/oled.c ****     for(i = 0; i < h; i++) {       // йҒҚеҺҶйЎө
 138:Hardware/OLED/oled.c ****         for(n = 0; n < w; n++) {   // йҒҚеҺҶеҲ—
 139:Hardware/OLED/oled.c ****             MyI2C_SendByte(g_oled_i2c, OLED_GRAM[y + i][x + n]);
 140:Hardware/OLED/oled.c ****             MyI2C_WaitAck(g_oled_i2c);
 141:Hardware/OLED/oled.c ****         }
 142:Hardware/OLED/oled.c ****     }
 143:Hardware/OLED/oled.c ****     MyI2C_Stop(g_oled_i2c);
 144:Hardware/OLED/oled.c **** }
 145:Hardware/OLED/oled.c **** 
 146:Hardware/OLED/oled.c **** void OLED_Clear(uint8_t m) {
 147:Hardware/OLED/oled.c ****     // дҪҝз”Ёж ҮеҮҶеә“ memset жһҒйҖҹжё…йӣ¶пјҢжҜ” for еҫӘзҺҜеҝ«
 148:Hardware/OLED/oled.c ****     if (m) {
 149:Hardware/OLED/oled.c ****             memset(OLED_GRAM, 0, sizeof(OLED_GRAM)); 
 150:Hardware/OLED/oled.c ****             OLED_Refresh();        
 151:Hardware/OLED/oled.c ****     } else {
 152:Hardware/OLED/oled.c ****             memset(OLED_GRAM, 0, sizeof(OLED_GRAM)); 
 153:Hardware/OLED/oled.c ****     }
 154:Hardware/OLED/oled.c **** }
ARM GAS  /tmp/ccYbGAiO.s 			page 5


 155:Hardware/OLED/oled.c **** 
 156:Hardware/OLED/oled.c **** /**
 157:Hardware/OLED/oled.c ****  * @brief еұҖйғЁеҢәеҹҹжё…з©ә (жҢ–з©ә/ж“ҰйҷӨ)
 158:Hardware/OLED/oled.c ****  * @param x: иө·е§Ӣ x еқҗж Ү
 159:Hardware/OLED/oled.c ****  * @param y: иө·е§Ӣ y еқҗж Ү
 160:Hardware/OLED/oled.c ****  * @param w: е®ҪеәҰ
 161:Hardware/OLED/oled.c ****  * @param h: й«ҳеәҰ
 162:Hardware/OLED/oled.c ****  * @param m: 1=з«ӢеҚіеҲ·ж–°еұҸе№•, 0=еҸӘж”№жҳҫеӯҳ
 163:Hardware/OLED/oled.c ****  */
 164:Hardware/OLED/oled.c **** void OLED_Clear_Part(uint8_t x, uint8_t y, uint8_t w, uint8_t h, uint8_t m)  {
 165:Hardware/OLED/oled.c ****     uint8_t i, j;
 166:Hardware/OLED/oled.c ****     uint8_t page, bit_mask;
 167:Hardware/OLED/oled.c **** 
 168:Hardware/OLED/oled.c ****     // --- 1. ж“ҚдҪңжҳҫеӯҳ (GRAM) ---
 169:Hardware/OLED/oled.c ****     // еӨ–еұӮеҫӘзҺҜпјҡйҒҚеҺҶ Y иҪҙ (иЎҢ)
 170:Hardware/OLED/oled.c ****     for (j = y; j < (y + h); j++) 
 171:Hardware/OLED/oled.c ****     {
 172:Hardware/OLED/oled.c ****         // иҫ№з•ҢдҝқжҠӨ
 173:Hardware/OLED/oled.c ****         if (j >= 64) break;
 174:Hardware/OLED/oled.c **** 
 175:Hardware/OLED/oled.c ****         // гҖҗдјҳеҢ–гҖ‘еҫӘзҺҜдёҚеҸҳејҸеӨ–жҸҗ
 176:Hardware/OLED/oled.c ****         page = j / 8;
 177:Hardware/OLED/oled.c ****         
 178:Hardware/OLED/oled.c ****         // гҖҗе…ій”®зӮ№гҖ‘еҲ¶дҪңжё…йӣ¶жҺ©з Ғ
 179:Hardware/OLED/oled.c ****         // 1 << (j%8) з”ҹжҲҗзҡ„жҳҜ 00001000 (иҰҒжҠҠиҝҷдёҖдҪҚжё…йӣ¶)
 180:Hardware/OLED/oled.c ****         // еҸ–еҸҚ (~) еҗҺеҸҳжҲҗ     11110111 (йҷӨдәҶиҝҷдёҖдҪҚжҳҜ0пјҢе…¶д»–йғҪжҳҜ1)
 181:Hardware/OLED/oled.c ****         // иҝҷж ·з”Ё & (дёҺ) иҝҗз®—еҗҺпјҢеҸӘжңүиҝҷдёҖдҪҚдјҡиў«ејәеҲ¶жӢүдҪҺдёә0пјҢе…¶д»–дҪҚдҝқжҢҒдёҚ
 182:Hardware/OLED/oled.c ****         bit_mask = ~(1 << (j % 8)); 
 183:Hardware/OLED/oled.c **** 
 184:Hardware/OLED/oled.c ****         // еҶ…еұӮеҫӘзҺҜпјҡйҒҚеҺҶ X иҪҙ (еҲ—)
 185:Hardware/OLED/oled.c ****         for (i = x; i < (x + w); i++) 
 186:Hardware/OLED/oled.c ****         {
 187:Hardware/OLED/oled.c ****             // иҫ№з•ҢдҝқжҠӨ
 188:Hardware/OLED/oled.c ****             if (i >= 128) break;
 189:Hardware/OLED/oled.c **** 
 190:Hardware/OLED/oled.c ****             // дҪҝз”ЁвҖңжҢүдҪҚдёҺвҖқ + вҖңжҺ©з ҒвҖқиҝӣиЎҢжё…йӣ¶
 191:Hardware/OLED/oled.c ****             OLED_GRAM[page][i] &= bit_mask;
 192:Hardware/OLED/oled.c ****         }
 193:Hardware/OLED/oled.c ****     }
 194:Hardware/OLED/oled.c **** 
 195:Hardware/OLED/oled.c ****     // --- 2. еұҖйғЁеҲ·ж–° (еҰӮжһң m=1) ---
 196:Hardware/OLED/oled.c ****     if (m) 
 197:Hardware/OLED/oled.c ****     {
 198:Hardware/OLED/oled.c ****         uint8_t pg_start = y / 8;
 199:Hardware/OLED/oled.c ****         uint8_t pg_end   = (y + h - 1) / 8;
 200:Hardware/OLED/oled.c ****         
 201:Hardware/OLED/oled.c ****         if (pg_end > 7) pg_end = 7;
 202:Hardware/OLED/oled.c **** 
 203:Hardware/OLED/oled.c ****         // и°ғз”ЁдҪ зҡ„еұҖйғЁеҲ·ж–°еҮҪж•°
 204:Hardware/OLED/oled.c ****         OLED_Refresh_Part(x, pg_start, w, pg_end - pg_start + 1);
 205:Hardware/OLED/oled.c ****     }
 206:Hardware/OLED/oled.c **** }
 207:Hardware/OLED/oled.c **** 
 208:Hardware/OLED/oled.c **** /* ============================================================
 209:Hardware/OLED/oled.c ****    [з»ҳеӣҫеұӮ] зӮ№гҖҒеӣҫ
 210:Hardware/OLED/oled.c ****    ============================================================ */
 211:Hardware/OLED/oled.c **** 
ARM GAS  /tmp/ccYbGAiO.s 			page 6


 212:Hardware/OLED/oled.c **** void OLED_DrawPoint(uint8_t x, uint8_t y, uint8_t t) {
 213:Hardware/OLED/oled.c ****     if (x > 127 || y > 63) return; // иҫ№з•ҢдҝқжҠӨ
 214:Hardware/OLED/oled.c ****     
 215:Hardware/OLED/oled.c ****     // жҳҫеӯҳз»“жһ„пјҡ1дёӘеӯ—иҠӮз®Ў8дёӘз«–зқҖзҡ„еғҸзҙ 
 216:Hardware/OLED/oled.c ****     uint8_t page = y / 8;       // з®—йЎө
 217:Hardware/OLED/oled.c ****     uint8_t bit_offset = y % 8; // з®—дҪҚ
 218:Hardware/OLED/oled.c **** 
 219:Hardware/OLED/oled.c ****     if (t) OLED_GRAM[page][x] |= (1 << bit_offset);     // зҪ®1 (дә®)
 220:Hardware/OLED/oled.c ****     else   OLED_GRAM[page][x] &= ~(1 << bit_offset);    // зҪ®0 (зҒӯ)
 221:Hardware/OLED/oled.c **** }
 222:Hardware/OLED/oled.c **** 
 223:Hardware/OLED/oled.c **** void OLED_ShowImage(const uint8_t *image) {
 224:Hardware/OLED/oled.c ****     // еҗҢж ·дҪҝз”Ёж ҮеҮҶеә“ memcpy иҝӣиЎҢеҶ…еӯҳжӢ·иҙқ
 225:Hardware/OLED/oled.c ****     memcpy(OLED_GRAM, image, sizeof(OLED_GRAM));
 226:Hardware/OLED/oled.c ****     OLED_Refresh();
 227:Hardware/OLED/oled.c **** }
 228:Hardware/OLED/oled.c **** 
 229:Hardware/OLED/oled.c **** /* ============================================================
 230:Hardware/OLED/oled.c ****    [еә”з”ЁеұӮ] еӯ—з¬ҰдёҺж•°еӯ—жҳҫзӨә (ж ёеҝғз®—жі•)
 231:Hardware/OLED/oled.c ****    ============================================================ */
 232:Hardware/OLED/oled.c **** 
 233:Hardware/OLED/oled.c **** // жҳҫзӨәеҚ•дёӘеӯ—з¬Ұ F8X16
 234:Hardware/OLED/oled.c **** void OLED_ShowCharF8X16(uint8_t x, uint8_t y, uint8_t chr, uint8_t m) {
 235:Hardware/OLED/oled.c ****     uint8_t i, c = chr - ' '; // еҫ—еҲ°еҒҸз§»еҖј
 236:Hardware/OLED/oled.c ****     if (x > 120 || y > 6 || c > 94) return; // иҫ№з•ҢдҝқжҠӨ
 237:Hardware/OLED/oled.c **** 
 238:Hardware/OLED/oled.c ****     for (i = 0; i < 8; i++) {
 239:Hardware/OLED/oled.c ****         OLED_GRAM[y][x + i] = F8X16[c][i];
 240:Hardware/OLED/oled.c ****         OLED_GRAM[y + 1][x + i] = F8X16[c][i + 8];
 241:Hardware/OLED/oled.c ****     }
 242:Hardware/OLED/oled.c ****     if (m) OLED_Refresh_Part(x, y, 8, 2); // й«ҳеәҰ2йЎө
 243:Hardware/OLED/oled.c **** }
 244:Hardware/OLED/oled.c **** 
 245:Hardware/OLED/oled.c **** // жҳҫзӨәеҚ•дёӘеӯ—з¬Ұ F6X8
 246:Hardware/OLED/oled.c **** void OLED_ShowCharF6X8(uint8_t x, uint8_t y, uint8_t chr, uint8_t m) {
 247:Hardware/OLED/oled.c ****     uint8_t i, c = chr - ' ';
 248:Hardware/OLED/oled.c ****     if (x > 122 || y > 7 || c > 94) return;
 249:Hardware/OLED/oled.c **** 
 250:Hardware/OLED/oled.c ****     for (i = 0; i < 6; i++) {
 251:Hardware/OLED/oled.c ****         OLED_GRAM[y][x + i] = F6X8[c][i];
 252:Hardware/OLED/oled.c ****     }
 253:Hardware/OLED/oled.c ****     if (m) OLED_Refresh_Part(x, y, 6, 1); // й«ҳеәҰ1йЎө
 254:Hardware/OLED/oled.c **** }
 255:Hardware/OLED/oled.c **** 
 256:Hardware/OLED/oled.c **** // еӯ—з¬ҰдёІжҳҫзӨә F8X16
 257:Hardware/OLED/oled.c **** void OLED_ShowStringF8X16(uint8_t x, uint8_t y, char* String, uint8_t m) {
 258:Hardware/OLED/oled.c ****     uint8_t i, j, chr;
 259:Hardware/OLED/oled.c ****     uint8_t len = strlen(String);
 260:Hardware/OLED/oled.c **** 
 261:Hardware/OLED/oled.c ****     for (i = 0; i < len; i++) {
 262:Hardware/OLED/oled.c ****         chr = String[i] - ' ';
 263:Hardware/OLED/oled.c ****         if ((x + i * 8) > 120 || y > 6) return;
 264:Hardware/OLED/oled.c **** 
 265:Hardware/OLED/oled.c ****         for (j = 0; j < 8; j++) {
 266:Hardware/OLED/oled.c ****             OLED_GRAM[y][x + i * 8 + j] = F8X16[chr][j];
 267:Hardware/OLED/oled.c ****             OLED_GRAM[y + 1][x + i * 8 + j] = F8X16[chr][j + 8];
 268:Hardware/OLED/oled.c ****         }
ARM GAS  /tmp/ccYbGAiO.s 			page 7


 269:Hardware/OLED/oled.c ****     }
 270:Hardware/OLED/oled.c ****     if (m) OLED_Refresh_Part(x, y, 8 * len, 2);
 271:Hardware/OLED/oled.c **** }
 272:Hardware/OLED/oled.c **** 
 273:Hardware/OLED/oled.c **** // жҳҫзӨәеӯ—з¬ҰдёІ F6X8
 274:Hardware/OLED/oled.c **** void OLED_ShowStringF6X8(uint8_t x, uint8_t y, char* String, uint8_t m) {
 275:Hardware/OLED/oled.c ****     uint8_t i, j, chr;
 276:Hardware/OLED/oled.c ****     uint8_t len = strlen(String);
 277:Hardware/OLED/oled.c **** 
 278:Hardware/OLED/oled.c ****     for (i = 0; i < len; i++) {
 279:Hardware/OLED/oled.c ****         chr = String[i] - ' ';
 280:Hardware/OLED/oled.c ****         // иҫ№з•ҢдҝқжҠӨпјҡx + еҪ“еүҚеӯ—з¬ҰеҒҸз§» > 127
 281:Hardware/OLED/oled.c ****         if ((x + i * 6) > 122 || y > 7) return;
 282:Hardware/OLED/oled.c **** 
 283:Hardware/OLED/oled.c ****         for (j = 0; j < 6; j++) {
 284:Hardware/OLED/oled.c ****             OLED_GRAM[y][x + i * 6 + j] = F6X8[chr][j];
 285:Hardware/OLED/oled.c ****         }
 286:Hardware/OLED/oled.c ****     }
 287:Hardware/OLED/oled.c ****     if (m) OLED_Refresh_Part(x, y, 6 * len, 1);
 288:Hardware/OLED/oled.c **** }
 289:Hardware/OLED/oled.c **** 
 290:Hardware/OLED/oled.c **** /**
 291:Hardware/OLED/oled.c ****  * @brief  еҶ…йғЁеҮҪж•°пјҡжҳҫзӨәж— з¬ҰеҸ·ж•°еӯ—зҡ„ж ёеҝғйҖ»иҫ‘
 292:Hardware/OLED/oled.c ****  * @param  UnsignedNum: жӯЈж•ҙж•°
 293:Hardware/OLED/oled.c ****  */
 294:Hardware/OLED/oled.c **** static void Show_Num_Core(uint8_t x, uint8_t y, uint32_t UnsignedNum, uint8_t Len, uint8_t IsF6X16)
  77              		.loc 1 294 101 is_stmt 1 view -0
  78              		.cfi_startproc
  79              		@ args = 4, pretend = 0, frame = 0
  80              		@ frame_needed = 0, uses_anonymous_args = 0
  81              		.loc 1 294 101 is_stmt 0 view .LVU15
  82 0000 2DE9F84F 		push	{r3, r4, r5, r6, r7, r8, r9, r10, fp, lr}
  83              	.LCFI0:
  84              		.cfi_def_cfa_offset 40
  85              		.cfi_offset 3, -40
  86              		.cfi_offset 4, -36
  87              		.cfi_offset 5, -32
  88              		.cfi_offset 6, -28
  89              		.cfi_offset 7, -24
  90              		.cfi_offset 8, -20
  91              		.cfi_offset 9, -16
  92              		.cfi_offset 10, -12
  93              		.cfi_offset 11, -8
  94              		.cfi_offset 14, -4
  95 0004 0646     		mov	r6, r0
  96 0006 0D46     		mov	r5, r1
  97 0008 9146     		mov	r9, r2
  98 000a 1F46     		mov	r7, r3
  99 000c 9DF82880 		ldrb	r8, [sp, #40]	@ zero_extendqisi2
 295:Hardware/OLED/oled.c ****     uint8_t i, j, num;
 100              		.loc 1 295 5 is_stmt 1 view .LVU16
 296:Hardware/OLED/oled.c ****     for (i = 0; i < Len; i++) {
 101              		.loc 1 296 5 view .LVU17
 102              	.LVL8:
 103              		.loc 1 296 12 is_stmt 0 view .LVU18
 104 0010 0024     		movs	r4, #0
 105              		.loc 1 296 5 view .LVU19
ARM GAS  /tmp/ccYbGAiO.s 			page 8


 106 0012 28E0     		b	.L5
 107              	.LVL9:
 108              	.L8:
 297:Hardware/OLED/oled.c ****         // ж ёеҝғз®—жі•пјҡжҸҗеҸ–з¬¬ i дҪҚж•°еӯ— (й«ҳдҪҚеңЁеүҚ)
 298:Hardware/OLED/oled.c ****         num = (UnsignedNum / OLED_Pow(10, Len - i - 1)) % 10;
 299:Hardware/OLED/oled.c ****         
 300:Hardware/OLED/oled.c ****         if (IsF6X16) {
 301:Hardware/OLED/oled.c ****             // 6x16 еӯ—дҪ“еӨ„зҗҶ (еҚ 2йЎө)
 302:Hardware/OLED/oled.c ****             for (j = 0; j < 6; j++) {
 303:Hardware/OLED/oled.c ****                 OLED_GRAM[y][x + i * 6 + j] = Font_Num_6X16[num][j];
 109              		.loc 1 303 17 is_stmt 1 discriminator 3 view .LVU20
 110              		.loc 1 303 65 is_stmt 0 discriminator 3 view .LVU21
 111 0014 5FFA82FC 		uxtb	ip, r2
 112              		.loc 1 303 36 discriminator 3 view .LVU22
 113 0018 04EB4403 		add	r3, r4, r4, lsl #1
 114              		.loc 1 303 32 discriminator 3 view .LVU23
 115 001c 06EB4303 		add	r3, r6, r3, lsl #1
 116              		.loc 1 303 40 discriminator 3 view .LVU24
 117 0020 7344     		add	r3, r3, lr
 118              		.loc 1 303 65 discriminator 3 view .LVU25
 119 0022 2F48     		ldr	r0, .L17
 120 0024 0CEB4C01 		add	r1, ip, ip, lsl #1
 121 0028 00EB8101 		add	r1, r0, r1, lsl #2
 122 002c 11F80EB0 		ldrb	fp, [r1, lr]	@ zero_extendqisi2
 123              		.loc 1 303 45 discriminator 3 view .LVU26
 124 0030 2C49     		ldr	r1, .L17+4
 125 0032 01EBC51A 		add	r10, r1, r5, lsl #7
 126 0036 0AF803B0 		strb	fp, [r10, r3]
 304:Hardware/OLED/oled.c ****                 OLED_GRAM[y + 1][x + i * 6 + j] = Font_Num_6X16[num][j + 6];
 127              		.loc 1 304 17 is_stmt 1 discriminator 3 view .LVU27
 128              		.loc 1 304 72 is_stmt 0 discriminator 3 view .LVU28
 129 003a 0EF1060B 		add	fp, lr, #6
 130              		.loc 1 304 29 discriminator 3 view .LVU29
 131 003e 05F1010A 		add	r10, r5, #1
 132              		.loc 1 304 69 discriminator 3 view .LVU30
 133 0042 0CEB4C0C 		add	ip, ip, ip, lsl #1
 134 0046 00EB8C0C 		add	ip, r0, ip, lsl #2
 135 004a 1CF80B00 		ldrb	r0, [ip, fp]	@ zero_extendqisi2
 136              		.loc 1 304 49 discriminator 3 view .LVU31
 137 004e 01EBCA11 		add	r1, r1, r10, lsl #7
 138 0052 C854     		strb	r0, [r1, r3]
 302:Hardware/OLED/oled.c ****                 OLED_GRAM[y][x + i * 6 + j] = Font_Num_6X16[num][j];
 139              		.loc 1 302 32 is_stmt 1 discriminator 3 view .LVU32
 302:Hardware/OLED/oled.c ****                 OLED_GRAM[y][x + i * 6 + j] = Font_Num_6X16[num][j];
 140              		.loc 1 302 33 is_stmt 0 discriminator 3 view .LVU33
 141 0054 0EF1010E 		add	lr, lr, #1
 142              	.LVL10:
 302:Hardware/OLED/oled.c ****                 OLED_GRAM[y][x + i * 6 + j] = Font_Num_6X16[num][j];
 143              		.loc 1 302 33 discriminator 3 view .LVU34
 144 0058 5FFA8EFE 		uxtb	lr, lr
 145              	.LVL11:
 146              	.L6:
 302:Hardware/OLED/oled.c ****                 OLED_GRAM[y][x + i * 6 + j] = Font_Num_6X16[num][j];
 147              		.loc 1 302 25 is_stmt 1 discriminator 1 view .LVU35
 302:Hardware/OLED/oled.c ****                 OLED_GRAM[y][x + i * 6 + j] = Font_Num_6X16[num][j];
 148              		.loc 1 302 13 is_stmt 0 discriminator 1 view .LVU36
 149 005c BEF1050F 		cmp	lr, #5
ARM GAS  /tmp/ccYbGAiO.s 			page 9


 150 0060 D8D9     		bls	.L8
 151              	.LVL12:
 152              	.L9:
 296:Hardware/OLED/oled.c ****         // ж ёеҝғз®—жі•пјҡжҸҗеҸ–з¬¬ i дҪҚж•°еӯ— (й«ҳдҪҚеңЁеүҚ)
 153              		.loc 1 296 26 is_stmt 1 discriminator 2 view .LVU37
 296:Hardware/OLED/oled.c ****         // ж ёеҝғз®—жі•пјҡжҸҗеҸ–з¬¬ i дҪҚж•°еӯ— (й«ҳдҪҚеңЁеүҚ)
 154              		.loc 1 296 27 is_stmt 0 discriminator 2 view .LVU38
 155 0062 0134     		adds	r4, r4, #1
 156              	.LVL13:
 296:Hardware/OLED/oled.c ****         // ж ёеҝғз®—жі•пјҡжҸҗеҸ–з¬¬ i дҪҚж•°еӯ— (й«ҳдҪҚеңЁеүҚ)
 157              		.loc 1 296 27 discriminator 2 view .LVU39
 158 0064 E4B2     		uxtb	r4, r4
 159              	.LVL14:
 160              	.L5:
 296:Hardware/OLED/oled.c ****         // ж ёеҝғз®—жі•пјҡжҸҗеҸ–з¬¬ i дҪҚж•°еӯ— (й«ҳдҪҚеңЁеүҚ)
 161              		.loc 1 296 17 is_stmt 1 discriminator 1 view .LVU40
 296:Hardware/OLED/oled.c ****         // ж ёеҝғз®—жі•пјҡжҸҗеҸ–з¬¬ i дҪҚж•°еӯ— (й«ҳдҪҚеңЁеүҚ)
 162              		.loc 1 296 5 is_stmt 0 discriminator 1 view .LVU41
 163 0066 BC42     		cmp	r4, r7
 164 0068 38D2     		bcs	.L16
 298:Hardware/OLED/oled.c ****         
 165              		.loc 1 298 9 is_stmt 1 view .LVU42
 298:Hardware/OLED/oled.c ****         
 166              		.loc 1 298 47 is_stmt 0 view .LVU43
 167 006a 391B     		subs	r1, r7, r4
 168 006c C9B2     		uxtb	r1, r1
 298:Hardware/OLED/oled.c ****         
 169              		.loc 1 298 30 view .LVU44
 170 006e 0139     		subs	r1, r1, #1
 171 0070 C9B2     		uxtb	r1, r1
 172 0072 0A20     		movs	r0, #10
 173 0074 FFF7FEFF 		bl	OLED_Pow
 174              	.LVL15:
 298:Hardware/OLED/oled.c ****         
 175              		.loc 1 298 28 view .LVU45
 176 0078 B9FBF0F0 		udiv	r0, r9, r0
 298:Hardware/OLED/oled.c ****         
 177              		.loc 1 298 57 view .LVU46
 178 007c 1A4A     		ldr	r2, .L17+8
 179 007e A2FB0032 		umull	r3, r2, r2, r0
 180 0082 D208     		lsrs	r2, r2, #3
 181 0084 02EB8202 		add	r2, r2, r2, lsl #2
 182 0088 A0EB4202 		sub	r2, r0, r2, lsl #1
 183              	.LVL16:
 300:Hardware/OLED/oled.c ****             // 6x16 еӯ—дҪ“еӨ„зҗҶ (еҚ 2йЎө)
 184              		.loc 1 300 9 is_stmt 1 view .LVU47
 300:Hardware/OLED/oled.c ****             // 6x16 еӯ—дҪ“еӨ„зҗҶ (еҚ 2йЎө)
 185              		.loc 1 300 12 is_stmt 0 view .LVU48
 186 008c B8F1000F 		cmp	r8, #0
 187 0090 07D1     		bne	.L13
 188              	.LBB2:
 305:Hardware/OLED/oled.c ****             }
 306:Hardware/OLED/oled.c ****         } else {
 307:Hardware/OLED/oled.c ****             // 5x8 еӯ—дҪ“еӨ„зҗҶ (еҚ 1йЎө, йңҖиЎҘй—ҙйҡ”)
 308:Hardware/OLED/oled.c ****             uint8_t pos_x = x + i * 6;
 189              		.loc 1 308 13 is_stmt 1 view .LVU49
 190              		.loc 1 308 31 is_stmt 0 view .LVU50
ARM GAS  /tmp/ccYbGAiO.s 			page 10


 191 0092 04EB4400 		add	r0, r4, r4, lsl #1
 192 0096 4000     		lsls	r0, r0, #1
 193 0098 C0B2     		uxtb	r0, r0
 194              		.loc 1 308 21 view .LVU51
 195 009a 3044     		add	r0, r0, r6
 196 009c C0B2     		uxtb	r0, r0
 197              	.LVL17:
 309:Hardware/OLED/oled.c ****             for (j = 0; j < 5; j++) OLED_GRAM[y][pos_x + j] = Font_Num_5X8[num][j];
 198              		.loc 1 309 13 is_stmt 1 view .LVU52
 199              		.loc 1 309 20 is_stmt 0 view .LVU53
 200 009e 4346     		mov	r3, r8
 201              		.loc 1 309 13 view .LVU54
 202 00a0 13E0     		b	.L10
 203              	.LVL18:
 204              	.L13:
 205              		.loc 1 309 13 view .LVU55
 206              	.LBE2:
 302:Hardware/OLED/oled.c ****                 OLED_GRAM[y][x + i * 6 + j] = Font_Num_6X16[num][j];
 207              		.loc 1 302 20 view .LVU56
 208 00a2 4FF0000E 		mov	lr, #0
 209 00a6 D9E7     		b	.L6
 210              	.LVL19:
 211              	.L11:
 212              	.LBB3:
 213              		.loc 1 309 37 is_stmt 1 discriminator 3 view .LVU57
 214              		.loc 1 309 56 is_stmt 0 discriminator 3 view .LVU58
 215 00a8 00EB030C 		add	ip, r0, r3
 216              		.loc 1 309 80 discriminator 3 view .LVU59
 217 00ac D1B2     		uxtb	r1, r2
 218 00ae 01EB8101 		add	r1, r1, r1, lsl #2
 219 00b2 DFF838E0 		ldr	lr, .L17+12
 220 00b6 7144     		add	r1, r1, lr
 221 00b8 11F803E0 		ldrb	lr, [r1, r3]	@ zero_extendqisi2
 222              		.loc 1 309 61 discriminator 3 view .LVU60
 223 00bc 0949     		ldr	r1, .L17+4
 224 00be 01EBC511 		add	r1, r1, r5, lsl #7
 225 00c2 01F80CE0 		strb	lr, [r1, ip]
 226              		.loc 1 309 32 is_stmt 1 discriminator 3 view .LVU61
 227              		.loc 1 309 33 is_stmt 0 discriminator 3 view .LVU62
 228 00c6 0133     		adds	r3, r3, #1
 229              	.LVL20:
 230              		.loc 1 309 33 discriminator 3 view .LVU63
 231 00c8 DBB2     		uxtb	r3, r3
 232              	.LVL21:
 233              	.L10:
 234              		.loc 1 309 25 is_stmt 1 discriminator 1 view .LVU64
 235              		.loc 1 309 13 is_stmt 0 discriminator 1 view .LVU65
 236 00ca 042B     		cmp	r3, #4
 237 00cc ECD9     		bls	.L11
 310:Hardware/OLED/oled.c ****             OLED_GRAM[y][pos_x + 5] = 0; // иЎҘз¬¬6еҲ—з©әзҷҪ
 238              		.loc 1 310 13 is_stmt 1 view .LVU66
 239              		.loc 1 310 32 is_stmt 0 view .LVU67
 240 00ce 0530     		adds	r0, r0, #5
 241              	.LVL22:
 242              		.loc 1 310 37 view .LVU68
 243 00d0 044B     		ldr	r3, .L17+4
 244              	.LVL23:
ARM GAS  /tmp/ccYbGAiO.s 			page 11


 245              		.loc 1 310 37 view .LVU69
 246 00d2 03EBC513 		add	r3, r3, r5, lsl #7
 247 00d6 0022     		movs	r2, #0
 248              	.LVL24:
 249              		.loc 1 310 37 view .LVU70
 250 00d8 1A54     		strb	r2, [r3, r0]
 251 00da C2E7     		b	.L9
 252              	.LVL25:
 253              	.L16:
 254              		.loc 1 310 37 view .LVU71
 255              	.LBE3:
 311:Hardware/OLED/oled.c ****         }
 312:Hardware/OLED/oled.c ****     }
 313:Hardware/OLED/oled.c **** }
 256              		.loc 1 313 1 view .LVU72
 257 00dc BDE8F88F 		pop	{r3, r4, r5, r6, r7, r8, r9, r10, fp, pc}
 258              	.LVL26:
 259              	.L18:
 260              		.loc 1 313 1 view .LVU73
 261              		.align	2
 262              	.L17:
 263 00e0 00000000 		.word	.LANCHOR0
 264 00e4 00000000 		.word	.LANCHOR1
 265 00e8 CDCCCCCC 		.word	-858993459
 266 00ec 00000000 		.word	.LANCHOR2
 267              		.cfi_endproc
 268              	.LFE79:
 270              		.section	.text.OLED_Write_Cmd,"ax",%progbits
 271              		.align	1
 272              		.global	OLED_Write_Cmd
 273              		.syntax unified
 274              		.thumb
 275              		.thumb_func
 276              		.fpu softvfp
 278              	OLED_Write_Cmd:
 279              	.LVL27:
 280              	.LFB66:
  26:Hardware/OLED/oled.c ****     MyI2C_Start(g_oled_i2c);
 281              		.loc 1 26 34 is_stmt 1 view -0
 282              		.cfi_startproc
 283              		@ args = 0, pretend = 0, frame = 0
 284              		@ frame_needed = 0, uses_anonymous_args = 0
  26:Hardware/OLED/oled.c ****     MyI2C_Start(g_oled_i2c);
 285              		.loc 1 26 34 is_stmt 0 view .LVU75
 286 0000 38B5     		push	{r3, r4, r5, lr}
 287              	.LCFI1:
 288              		.cfi_def_cfa_offset 16
 289              		.cfi_offset 3, -16
 290              		.cfi_offset 4, -12
 291              		.cfi_offset 5, -8
 292              		.cfi_offset 14, -4
 293 0002 0546     		mov	r5, r0
  27:Hardware/OLED/oled.c ****     MyI2C_SendByte(g_oled_i2c, g_oled_addr);
 294              		.loc 1 27 5 is_stmt 1 view .LVU76
 295 0004 0E4C     		ldr	r4, .L21
 296 0006 2068     		ldr	r0, [r4]
 297              	.LVL28:
ARM GAS  /tmp/ccYbGAiO.s 			page 12


  27:Hardware/OLED/oled.c ****     MyI2C_SendByte(g_oled_i2c, g_oled_addr);
 298              		.loc 1 27 5 is_stmt 0 view .LVU77
 299 0008 FFF7FEFF 		bl	MyI2C_Start
 300              	.LVL29:
  28:Hardware/OLED/oled.c ****     MyI2C_WaitAck(g_oled_i2c);
 301              		.loc 1 28 5 is_stmt 1 view .LVU78
 302 000c 7821     		movs	r1, #120
 303 000e 2068     		ldr	r0, [r4]
 304 0010 FFF7FEFF 		bl	MyI2C_SendByte
 305              	.LVL30:
  29:Hardware/OLED/oled.c ****     MyI2C_SendByte(g_oled_i2c, 0x00); // 0x00 иЎЁзӨәеҗҺйқўжҳҜе‘Ҫд»Ө
 306              		.loc 1 29 5 view .LVU79
 307 0014 2068     		ldr	r0, [r4]
 308 0016 FFF7FEFF 		bl	MyI2C_WaitAck
 309              	.LVL31:
  30:Hardware/OLED/oled.c ****     MyI2C_WaitAck(g_oled_i2c);
 310              		.loc 1 30 5 view .LVU80
 311 001a 0021     		movs	r1, #0
 312 001c 2068     		ldr	r0, [r4]
 313 001e FFF7FEFF 		bl	MyI2C_SendByte
 314              	.LVL32:
  31:Hardware/OLED/oled.c ****     MyI2C_SendByte(g_oled_i2c, Cmd);
 315              		.loc 1 31 5 view .LVU81
 316 0022 2068     		ldr	r0, [r4]
 317 0024 FFF7FEFF 		bl	MyI2C_WaitAck
 318              	.LVL33:
  32:Hardware/OLED/oled.c ****     MyI2C_WaitAck(g_oled_i2c);
 319              		.loc 1 32 5 view .LVU82
 320 0028 2946     		mov	r1, r5
 321 002a 2068     		ldr	r0, [r4]
 322 002c FFF7FEFF 		bl	MyI2C_SendByte
 323              	.LVL34:
  33:Hardware/OLED/oled.c ****     MyI2C_Stop(g_oled_i2c);
 324              		.loc 1 33 5 view .LVU83
 325 0030 2068     		ldr	r0, [r4]
 326 0032 FFF7FEFF 		bl	MyI2C_WaitAck
 327              	.LVL35:
  34:Hardware/OLED/oled.c **** }
 328              		.loc 1 34 5 view .LVU84
 329 0036 2068     		ldr	r0, [r4]
 330 0038 FFF7FEFF 		bl	MyI2C_Stop
 331              	.LVL36:
  35:Hardware/OLED/oled.c **** 
 332              		.loc 1 35 1 is_stmt 0 view .LVU85
 333 003c 38BD     		pop	{r3, r4, r5, pc}
 334              	.L22:
 335 003e 00BF     		.align	2
 336              	.L21:
 337 0040 00000000 		.word	.LANCHOR3
 338              		.cfi_endproc
 339              	.LFE66:
 341              		.section	.text.OLED_Write_Data,"ax",%progbits
 342              		.align	1
 343              		.global	OLED_Write_Data
 344              		.syntax unified
 345              		.thumb
 346              		.thumb_func
ARM GAS  /tmp/ccYbGAiO.s 			page 13


 347              		.fpu softvfp
 349              	OLED_Write_Data:
 350              	.LVL37:
 351              	.LFB67:
  38:Hardware/OLED/oled.c ****     MyI2C_Start(g_oled_i2c);
 352              		.loc 1 38 36 is_stmt 1 view -0
 353              		.cfi_startproc
 354              		@ args = 0, pretend = 0, frame = 0
 355              		@ frame_needed = 0, uses_anonymous_args = 0
  38:Hardware/OLED/oled.c ****     MyI2C_Start(g_oled_i2c);
 356              		.loc 1 38 36 is_stmt 0 view .LVU87
 357 0000 38B5     		push	{r3, r4, r5, lr}
 358              	.LCFI2:
 359              		.cfi_def_cfa_offset 16
 360              		.cfi_offset 3, -16
 361              		.cfi_offset 4, -12
 362              		.cfi_offset 5, -8
 363              		.cfi_offset 14, -4
 364 0002 0546     		mov	r5, r0
  39:Hardware/OLED/oled.c ****     MyI2C_SendByte(g_oled_i2c, g_oled_addr);
 365              		.loc 1 39 5 is_stmt 1 view .LVU88
 366 0004 0E4C     		ldr	r4, .L25
 367 0006 2068     		ldr	r0, [r4]
 368              	.LVL38:
  39:Hardware/OLED/oled.c ****     MyI2C_SendByte(g_oled_i2c, g_oled_addr);
 369              		.loc 1 39 5 is_stmt 0 view .LVU89
 370 0008 FFF7FEFF 		bl	MyI2C_Start
 371              	.LVL39:
  40:Hardware/OLED/oled.c ****     MyI2C_WaitAck(g_oled_i2c);
 372              		.loc 1 40 5 is_stmt 1 view .LVU90
 373 000c 7821     		movs	r1, #120
 374 000e 2068     		ldr	r0, [r4]
 375 0010 FFF7FEFF 		bl	MyI2C_SendByte
 376              	.LVL40:
  41:Hardware/OLED/oled.c ****     MyI2C_SendByte(g_oled_i2c, 0x40); // 0x40 иЎЁзӨәеҗҺйқўжҳҜж•°жҚ®
 377              		.loc 1 41 5 view .LVU91
 378 0014 2068     		ldr	r0, [r4]
 379 0016 FFF7FEFF 		bl	MyI2C_WaitAck
 380              	.LVL41:
  42:Hardware/OLED/oled.c ****     MyI2C_WaitAck(g_oled_i2c);
 381              		.loc 1 42 5 view .LVU92
 382 001a 4021     		movs	r1, #64
 383 001c 2068     		ldr	r0, [r4]
 384 001e FFF7FEFF 		bl	MyI2C_SendByte
 385              	.LVL42:
  43:Hardware/OLED/oled.c ****     MyI2C_SendByte(g_oled_i2c, Data);
 386              		.loc 1 43 5 view .LVU93
 387 0022 2068     		ldr	r0, [r4]
 388 0024 FFF7FEFF 		bl	MyI2C_WaitAck
 389              	.LVL43:
  44:Hardware/OLED/oled.c ****     MyI2C_WaitAck(g_oled_i2c);
 390              		.loc 1 44 5 view .LVU94
 391 0028 2946     		mov	r1, r5
 392 002a 2068     		ldr	r0, [r4]
 393 002c FFF7FEFF 		bl	MyI2C_SendByte
 394              	.LVL44:
  45:Hardware/OLED/oled.c ****     MyI2C_Stop(g_oled_i2c);
ARM GAS  /tmp/ccYbGAiO.s 			page 14


 395              		.loc 1 45 5 view .LVU95
 396 0030 2068     		ldr	r0, [r4]
 397 0032 FFF7FEFF 		bl	MyI2C_WaitAck
 398              	.LVL45:
  46:Hardware/OLED/oled.c **** }
 399              		.loc 1 46 5 view .LVU96
 400 0036 2068     		ldr	r0, [r4]
 401 0038 FFF7FEFF 		bl	MyI2C_Stop
 402              	.LVL46:
  47:Hardware/OLED/oled.c **** 
 403              		.loc 1 47 1 is_stmt 0 view .LVU97
 404 003c 38BD     		pop	{r3, r4, r5, pc}
 405              	.L26:
 406 003e 00BF     		.align	2
 407              	.L25:
 408 0040 00000000 		.word	.LANCHOR3
 409              		.cfi_endproc
 410              	.LFE67:
 412              		.section	.text.OLED_Refresh,"ax",%progbits
 413              		.align	1
 414              		.global	OLED_Refresh
 415              		.syntax unified
 416              		.thumb
 417              		.thumb_func
 418              		.fpu softvfp
 420              	OLED_Refresh:
 421              	.LFB69:
 104:Hardware/OLED/oled.c ****     uint8_t *pRAM = (uint8_t *)OLED_GRAM; 
 422              		.loc 1 104 25 is_stmt 1 view -0
 423              		.cfi_startproc
 424              		@ args = 0, pretend = 0, frame = 0
 425              		@ frame_needed = 0, uses_anonymous_args = 0
 426 0000 38B5     		push	{r3, r4, r5, lr}
 427              	.LCFI3:
 428              		.cfi_def_cfa_offset 16
 429              		.cfi_offset 3, -16
 430              		.cfi_offset 4, -12
 431              		.cfi_offset 5, -8
 432              		.cfi_offset 14, -4
 105:Hardware/OLED/oled.c ****     uint16_t i;
 433              		.loc 1 105 5 view .LVU99
 434              	.LVL47:
 106:Hardware/OLED/oled.c **** 
 435              		.loc 1 106 5 view .LVU100
 109:Hardware/OLED/oled.c ****     OLED_Write_Cmd(0x22); OLED_Write_Cmd(0x00); OLED_Write_Cmd(0x07);
 436              		.loc 1 109 5 view .LVU101
 437 0002 2120     		movs	r0, #33
 438 0004 FFF7FEFF 		bl	OLED_Write_Cmd
 439              	.LVL48:
 109:Hardware/OLED/oled.c ****     OLED_Write_Cmd(0x22); OLED_Write_Cmd(0x00); OLED_Write_Cmd(0x07);
 440              		.loc 1 109 27 view .LVU102
 441 0008 0020     		movs	r0, #0
 442 000a FFF7FEFF 		bl	OLED_Write_Cmd
 443              	.LVL49:
 109:Hardware/OLED/oled.c ****     OLED_Write_Cmd(0x22); OLED_Write_Cmd(0x00); OLED_Write_Cmd(0x07);
 444              		.loc 1 109 49 view .LVU103
 445 000e 7F20     		movs	r0, #127
ARM GAS  /tmp/ccYbGAiO.s 			page 15


 446 0010 FFF7FEFF 		bl	OLED_Write_Cmd
 447              	.LVL50:
 110:Hardware/OLED/oled.c **** 
 448              		.loc 1 110 5 view .LVU104
 449 0014 2220     		movs	r0, #34
 450 0016 FFF7FEFF 		bl	OLED_Write_Cmd
 451              	.LVL51:
 110:Hardware/OLED/oled.c **** 
 452              		.loc 1 110 27 view .LVU105
 453 001a 0020     		movs	r0, #0
 454 001c FFF7FEFF 		bl	OLED_Write_Cmd
 455              	.LVL52:
 110:Hardware/OLED/oled.c **** 
 456              		.loc 1 110 49 view .LVU106
 457 0020 0720     		movs	r0, #7
 458 0022 FFF7FEFF 		bl	OLED_Write_Cmd
 459              	.LVL53:
 113:Hardware/OLED/oled.c ****     MyI2C_SendByte(g_oled_i2c, g_oled_addr); MyI2C_WaitAck(g_oled_i2c);
 460              		.loc 1 113 5 view .LVU107
 461 0026 134C     		ldr	r4, .L31
 462 0028 2068     		ldr	r0, [r4]
 463 002a FFF7FEFF 		bl	MyI2C_Start
 464              	.LVL54:
 114:Hardware/OLED/oled.c ****     MyI2C_SendByte(g_oled_i2c, 0x40);      MyI2C_WaitAck(g_oled_i2c); // ж•°жҚ®жЁЎејҸ
 465              		.loc 1 114 5 view .LVU108
 466 002e 7821     		movs	r1, #120
 467 0030 2068     		ldr	r0, [r4]
 468 0032 FFF7FEFF 		bl	MyI2C_SendByte
 469              	.LVL55:
 114:Hardware/OLED/oled.c ****     MyI2C_SendByte(g_oled_i2c, 0x40);      MyI2C_WaitAck(g_oled_i2c); // ж•°жҚ®жЁЎејҸ
 470              		.loc 1 114 46 view .LVU109
 471 0036 2068     		ldr	r0, [r4]
 472 0038 FFF7FEFF 		bl	MyI2C_WaitAck
 473              	.LVL56:
 115:Hardware/OLED/oled.c **** 
 474              		.loc 1 115 5 view .LVU110
 475 003c 4021     		movs	r1, #64
 476 003e 2068     		ldr	r0, [r4]
 477 0040 FFF7FEFF 		bl	MyI2C_SendByte
 478              	.LVL57:
 115:Hardware/OLED/oled.c **** 
 479              		.loc 1 115 44 view .LVU111
 480 0044 2068     		ldr	r0, [r4]
 481 0046 FFF7FEFF 		bl	MyI2C_WaitAck
 482              	.LVL58:
 117:Hardware/OLED/oled.c ****         MyI2C_SendByte(g_oled_i2c, pRAM[i]);
 483              		.loc 1 117 5 view .LVU112
 117:Hardware/OLED/oled.c ****         MyI2C_SendByte(g_oled_i2c, pRAM[i]);
 484              		.loc 1 117 12 is_stmt 0 view .LVU113
 485 004a 0024     		movs	r4, #0
 117:Hardware/OLED/oled.c ****         MyI2C_SendByte(g_oled_i2c, pRAM[i]);
 486              		.loc 1 117 5 view .LVU114
 487 004c 0AE0     		b	.L28
 488              	.LVL59:
 489              	.L29:
 118:Hardware/OLED/oled.c ****         MyI2C_WaitAck(g_oled_i2c);
 490              		.loc 1 118 9 is_stmt 1 discriminator 3 view .LVU115
ARM GAS  /tmp/ccYbGAiO.s 			page 16


 491 004e 094D     		ldr	r5, .L31
 492 0050 094B     		ldr	r3, .L31+4
 493 0052 195D     		ldrb	r1, [r3, r4]	@ zero_extendqisi2
 494 0054 2868     		ldr	r0, [r5]
 495 0056 FFF7FEFF 		bl	MyI2C_SendByte
 496              	.LVL60:
 119:Hardware/OLED/oled.c ****     }
 497              		.loc 1 119 9 discriminator 3 view .LVU116
 498 005a 2868     		ldr	r0, [r5]
 499 005c FFF7FEFF 		bl	MyI2C_WaitAck
 500              	.LVL61:
 117:Hardware/OLED/oled.c ****         MyI2C_SendByte(g_oled_i2c, pRAM[i]);
 501              		.loc 1 117 27 discriminator 3 view .LVU117
 117:Hardware/OLED/oled.c ****         MyI2C_SendByte(g_oled_i2c, pRAM[i]);
 502              		.loc 1 117 28 is_stmt 0 discriminator 3 view .LVU118
 503 0060 0134     		adds	r4, r4, #1
 504              	.LVL62:
 117:Hardware/OLED/oled.c ****         MyI2C_SendByte(g_oled_i2c, pRAM[i]);
 505              		.loc 1 117 28 discriminator 3 view .LVU119
 506 0062 A4B2     		uxth	r4, r4
 507              	.LVL63:
 508              	.L28:
 117:Hardware/OLED/oled.c ****         MyI2C_SendByte(g_oled_i2c, pRAM[i]);
 509              		.loc 1 117 17 is_stmt 1 discriminator 1 view .LVU120
 117:Hardware/OLED/oled.c ****         MyI2C_SendByte(g_oled_i2c, pRAM[i]);
 510              		.loc 1 117 5 is_stmt 0 discriminator 1 view .LVU121
 511 0064 B4F5806F 		cmp	r4, #1024
 512 0068 F1D3     		bcc	.L29
 121:Hardware/OLED/oled.c **** }
 513              		.loc 1 121 5 is_stmt 1 view .LVU122
 514 006a 024B     		ldr	r3, .L31
 515 006c 1868     		ldr	r0, [r3]
 516 006e FFF7FEFF 		bl	MyI2C_Stop
 517              	.LVL64:
 122:Hardware/OLED/oled.c **** 
 518              		.loc 1 122 1 is_stmt 0 view .LVU123
 519 0072 38BD     		pop	{r3, r4, r5, pc}
 520              	.LVL65:
 521              	.L32:
 122:Hardware/OLED/oled.c **** 
 522              		.loc 1 122 1 view .LVU124
 523              		.align	2
 524              	.L31:
 525 0074 00000000 		.word	.LANCHOR3
 526 0078 00000000 		.word	.LANCHOR1
 527              		.cfi_endproc
 528              	.LFE69:
 530              		.section	.text.OLED_Refresh_Part,"ax",%progbits
 531              		.align	1
 532              		.global	OLED_Refresh_Part
 533              		.syntax unified
 534              		.thumb
 535              		.thumb_func
 536              		.fpu softvfp
 538              	OLED_Refresh_Part:
 539              	.LVL66:
 540              	.LFB70:
ARM GAS  /tmp/ccYbGAiO.s 			page 17


 125:Hardware/OLED/oled.c ****     uint8_t i, n;
 541              		.loc 1 125 68 is_stmt 1 view -0
 542              		.cfi_startproc
 543              		@ args = 0, pretend = 0, frame = 0
 544              		@ frame_needed = 0, uses_anonymous_args = 0
 125:Hardware/OLED/oled.c ****     uint8_t i, n;
 545              		.loc 1 125 68 is_stmt 0 view .LVU126
 546 0000 2DE9F047 		push	{r4, r5, r6, r7, r8, r9, r10, lr}
 547              	.LCFI4:
 548              		.cfi_def_cfa_offset 32
 549              		.cfi_offset 4, -32
 550              		.cfi_offset 5, -28
 551              		.cfi_offset 6, -24
 552              		.cfi_offset 7, -20
 553              		.cfi_offset 8, -16
 554              		.cfi_offset 9, -12
 555              		.cfi_offset 10, -8
 556              		.cfi_offset 14, -4
 557 0004 8046     		mov	r8, r0
 558 0006 0F46     		mov	r7, r1
 559 0008 1646     		mov	r6, r2
 560 000a 9946     		mov	r9, r3
 126:Hardware/OLED/oled.c **** 
 561              		.loc 1 126 5 is_stmt 1 view .LVU127
 129:Hardware/OLED/oled.c ****     OLED_Write_Cmd(0x22); OLED_Write_Cmd(y); OLED_Write_Cmd(y + h - 1);
 562              		.loc 1 129 5 view .LVU128
 563 000c 2120     		movs	r0, #33
 564              	.LVL67:
 129:Hardware/OLED/oled.c ****     OLED_Write_Cmd(0x22); OLED_Write_Cmd(y); OLED_Write_Cmd(y + h - 1);
 565              		.loc 1 129 5 is_stmt 0 view .LVU129
 566 000e FFF7FEFF 		bl	OLED_Write_Cmd
 567              	.LVL68:
 129:Hardware/OLED/oled.c ****     OLED_Write_Cmd(0x22); OLED_Write_Cmd(y); OLED_Write_Cmd(y + h - 1);
 568              		.loc 1 129 27 is_stmt 1 view .LVU130
 569 0012 4046     		mov	r0, r8
 570 0014 FFF7FEFF 		bl	OLED_Write_Cmd
 571              	.LVL69:
 129:Hardware/OLED/oled.c ****     OLED_Write_Cmd(0x22); OLED_Write_Cmd(y); OLED_Write_Cmd(y + h - 1);
 572              		.loc 1 129 46 view .LVU131
 129:Hardware/OLED/oled.c ****     OLED_Write_Cmd(0x22); OLED_Write_Cmd(y); OLED_Write_Cmd(y + h - 1);
 573              		.loc 1 129 63 is_stmt 0 view .LVU132
 574 0018 08EB0600 		add	r0, r8, r6
 575 001c C0B2     		uxtb	r0, r0
 129:Hardware/OLED/oled.c ****     OLED_Write_Cmd(0x22); OLED_Write_Cmd(y); OLED_Write_Cmd(y + h - 1);
 576              		.loc 1 129 46 view .LVU133
 577 001e 0138     		subs	r0, r0, #1
 578 0020 C0B2     		uxtb	r0, r0
 579 0022 FFF7FEFF 		bl	OLED_Write_Cmd
 580              	.LVL70:
 130:Hardware/OLED/oled.c **** 
 581              		.loc 1 130 5 is_stmt 1 view .LVU134
 582 0026 2220     		movs	r0, #34
 583 0028 FFF7FEFF 		bl	OLED_Write_Cmd
 584              	.LVL71:
 130:Hardware/OLED/oled.c **** 
 585              		.loc 1 130 27 view .LVU135
 586 002c 3846     		mov	r0, r7
ARM GAS  /tmp/ccYbGAiO.s 			page 18


 587 002e FFF7FEFF 		bl	OLED_Write_Cmd
 588              	.LVL72:
 130:Hardware/OLED/oled.c **** 
 589              		.loc 1 130 46 view .LVU136
 130:Hardware/OLED/oled.c **** 
 590              		.loc 1 130 63 is_stmt 0 view .LVU137
 591 0032 07EB0900 		add	r0, r7, r9
 592 0036 C0B2     		uxtb	r0, r0
 130:Hardware/OLED/oled.c **** 
 593              		.loc 1 130 46 view .LVU138
 594 0038 0138     		subs	r0, r0, #1
 595 003a C0B2     		uxtb	r0, r0
 596 003c FFF7FEFF 		bl	OLED_Write_Cmd
 597              	.LVL73:
 133:Hardware/OLED/oled.c ****     MyI2C_SendByte(g_oled_i2c, g_oled_addr); MyI2C_WaitAck(g_oled_i2c);
 598              		.loc 1 133 5 is_stmt 1 view .LVU139
 599 0040 1B4C     		ldr	r4, .L40
 600 0042 2068     		ldr	r0, [r4]
 601 0044 FFF7FEFF 		bl	MyI2C_Start
 602              	.LVL74:
 134:Hardware/OLED/oled.c ****     MyI2C_SendByte(g_oled_i2c, 0x40);      MyI2C_WaitAck(g_oled_i2c);
 603              		.loc 1 134 5 view .LVU140
 604 0048 7821     		movs	r1, #120
 605 004a 2068     		ldr	r0, [r4]
 606 004c FFF7FEFF 		bl	MyI2C_SendByte
 607              	.LVL75:
 134:Hardware/OLED/oled.c ****     MyI2C_SendByte(g_oled_i2c, 0x40);      MyI2C_WaitAck(g_oled_i2c);
 608              		.loc 1 134 46 view .LVU141
 609 0050 2068     		ldr	r0, [r4]
 610 0052 FFF7FEFF 		bl	MyI2C_WaitAck
 611              	.LVL76:
 135:Hardware/OLED/oled.c **** 
 612              		.loc 1 135 5 view .LVU142
 613 0056 4021     		movs	r1, #64
 614 0058 2068     		ldr	r0, [r4]
 615 005a FFF7FEFF 		bl	MyI2C_SendByte
 616              	.LVL77:
 135:Hardware/OLED/oled.c **** 
 617              		.loc 1 135 44 view .LVU143
 618 005e 2068     		ldr	r0, [r4]
 619 0060 FFF7FEFF 		bl	MyI2C_WaitAck
 620              	.LVL78:
 137:Hardware/OLED/oled.c ****         for(n = 0; n < w; n++) {   // йҒҚеҺҶеҲ—
 621              		.loc 1 137 5 view .LVU144
 137:Hardware/OLED/oled.c ****         for(n = 0; n < w; n++) {   // йҒҚеҺҶеҲ—
 622              		.loc 1 137 11 is_stmt 0 view .LVU145
 623 0064 0025     		movs	r5, #0
 137:Hardware/OLED/oled.c ****         for(n = 0; n < w; n++) {   // йҒҚеҺҶеҲ—
 624              		.loc 1 137 5 view .LVU146
 625 0066 18E0     		b	.L34
 626              	.LVL79:
 627              	.L35:
 139:Hardware/OLED/oled.c ****             MyI2C_WaitAck(g_oled_i2c);
 628              		.loc 1 139 13 is_stmt 1 discriminator 3 view .LVU147
 139:Hardware/OLED/oled.c ****             MyI2C_WaitAck(g_oled_i2c);
 629              		.loc 1 139 52 is_stmt 0 discriminator 3 view .LVU148
 630 0068 07EB050C 		add	ip, r7, r5
ARM GAS  /tmp/ccYbGAiO.s 			page 19


 139:Hardware/OLED/oled.c ****             MyI2C_WaitAck(g_oled_i2c);
 631              		.loc 1 139 59 discriminator 3 view .LVU149
 632 006c 08EB0402 		add	r2, r8, r4
 139:Hardware/OLED/oled.c ****             MyI2C_WaitAck(g_oled_i2c);
 633              		.loc 1 139 13 discriminator 3 view .LVU150
 634 0070 104B     		ldr	r3, .L40+4
 635 0072 03EBCC1C 		add	ip, r3, ip, lsl #7
 636 0076 DFF838A0 		ldr	r10, .L40
 637 007a 1CF80210 		ldrb	r1, [ip, r2]	@ zero_extendqisi2
 638 007e DAF80000 		ldr	r0, [r10]
 639 0082 FFF7FEFF 		bl	MyI2C_SendByte
 640              	.LVL80:
 140:Hardware/OLED/oled.c ****         }
 641              		.loc 1 140 13 is_stmt 1 discriminator 3 view .LVU151
 642 0086 DAF80000 		ldr	r0, [r10]
 643 008a FFF7FEFF 		bl	MyI2C_WaitAck
 644              	.LVL81:
 138:Hardware/OLED/oled.c ****             MyI2C_SendByte(g_oled_i2c, OLED_GRAM[y + i][x + n]);
 645              		.loc 1 138 27 discriminator 3 view .LVU152
 138:Hardware/OLED/oled.c ****             MyI2C_SendByte(g_oled_i2c, OLED_GRAM[y + i][x + n]);
 646              		.loc 1 138 28 is_stmt 0 discriminator 3 view .LVU153
 647 008e 0134     		adds	r4, r4, #1
 648              	.LVL82:
 138:Hardware/OLED/oled.c ****             MyI2C_SendByte(g_oled_i2c, OLED_GRAM[y + i][x + n]);
 649              		.loc 1 138 28 discriminator 3 view .LVU154
 650 0090 E4B2     		uxtb	r4, r4
 651              	.LVL83:
 652              	.L36:
 138:Hardware/OLED/oled.c ****             MyI2C_SendByte(g_oled_i2c, OLED_GRAM[y + i][x + n]);
 653              		.loc 1 138 20 is_stmt 1 discriminator 1 view .LVU155
 138:Hardware/OLED/oled.c ****             MyI2C_SendByte(g_oled_i2c, OLED_GRAM[y + i][x + n]);
 654              		.loc 1 138 9 is_stmt 0 discriminator 1 view .LVU156
 655 0092 B442     		cmp	r4, r6
 656 0094 E8D3     		bcc	.L35
 137:Hardware/OLED/oled.c ****         for(n = 0; n < w; n++) {   // йҒҚеҺҶеҲ—
 657              		.loc 1 137 23 is_stmt 1 discriminator 2 view .LVU157
 137:Hardware/OLED/oled.c ****         for(n = 0; n < w; n++) {   // йҒҚеҺҶеҲ—
 658              		.loc 1 137 24 is_stmt 0 discriminator 2 view .LVU158
 659 0096 0135     		adds	r5, r5, #1
 660              	.LVL84:
 137:Hardware/OLED/oled.c ****         for(n = 0; n < w; n++) {   // йҒҚеҺҶеҲ—
 661              		.loc 1 137 24 discriminator 2 view .LVU159
 662 0098 EDB2     		uxtb	r5, r5
 663              	.LVL85:
 664              	.L34:
 137:Hardware/OLED/oled.c ****         for(n = 0; n < w; n++) {   // йҒҚеҺҶеҲ—
 665              		.loc 1 137 16 is_stmt 1 discriminator 1 view .LVU160
 137:Hardware/OLED/oled.c ****         for(n = 0; n < w; n++) {   // йҒҚеҺҶеҲ—
 666              		.loc 1 137 5 is_stmt 0 discriminator 1 view .LVU161
 667 009a 4D45     		cmp	r5, r9
 668 009c 01D2     		bcs	.L39
 138:Hardware/OLED/oled.c ****             MyI2C_SendByte(g_oled_i2c, OLED_GRAM[y + i][x + n]);
 669              		.loc 1 138 15 view .LVU162
 670 009e 0024     		movs	r4, #0
 671 00a0 F7E7     		b	.L36
 672              	.L39:
 143:Hardware/OLED/oled.c **** }
ARM GAS  /tmp/ccYbGAiO.s 			page 20


 673              		.loc 1 143 5 is_stmt 1 view .LVU163
 674 00a2 034B     		ldr	r3, .L40
 675 00a4 1868     		ldr	r0, [r3]
 676 00a6 FFF7FEFF 		bl	MyI2C_Stop
 677              	.LVL86:
 144:Hardware/OLED/oled.c **** 
 678              		.loc 1 144 1 is_stmt 0 view .LVU164
 679 00aa BDE8F087 		pop	{r4, r5, r6, r7, r8, r9, r10, pc}
 680              	.LVL87:
 681              	.L41:
 144:Hardware/OLED/oled.c **** 
 682              		.loc 1 144 1 view .LVU165
 683 00ae 00BF     		.align	2
 684              	.L40:
 685 00b0 00000000 		.word	.LANCHOR3
 686 00b4 00000000 		.word	.LANCHOR1
 687              		.cfi_endproc
 688              	.LFE70:
 690              		.section	.text.OLED_Clear,"ax",%progbits
 691              		.align	1
 692              		.global	OLED_Clear
 693              		.syntax unified
 694              		.thumb
 695              		.thumb_func
 696              		.fpu softvfp
 698              	OLED_Clear:
 699              	.LVL88:
 700              	.LFB71:
 146:Hardware/OLED/oled.c ****     // дҪҝз”Ёж ҮеҮҶеә“ memset жһҒйҖҹжё…йӣ¶пјҢжҜ” for еҫӘзҺҜеҝ«
 701              		.loc 1 146 28 is_stmt 1 view -0
 702              		.cfi_startproc
 703              		@ args = 0, pretend = 0, frame = 0
 704              		@ frame_needed = 0, uses_anonymous_args = 0
 146:Hardware/OLED/oled.c ****     // дҪҝз”Ёж ҮеҮҶеә“ memset жһҒйҖҹжё…йӣ¶пјҢжҜ” for еҫӘзҺҜеҝ«
 705              		.loc 1 146 28 is_stmt 0 view .LVU167
 706 0000 08B5     		push	{r3, lr}
 707              	.LCFI5:
 708              		.cfi_def_cfa_offset 8
 709              		.cfi_offset 3, -8
 710              		.cfi_offset 14, -4
 148:Hardware/OLED/oled.c ****             memset(OLED_GRAM, 0, sizeof(OLED_GRAM)); 
 711              		.loc 1 148 5 is_stmt 1 view .LVU168
 148:Hardware/OLED/oled.c ****             memset(OLED_GRAM, 0, sizeof(OLED_GRAM)); 
 712              		.loc 1 148 8 is_stmt 0 view .LVU169
 713 0002 40B1     		cbz	r0, .L43
 149:Hardware/OLED/oled.c ****             OLED_Refresh();        
 714              		.loc 1 149 13 is_stmt 1 view .LVU170
 715 0004 4FF48062 		mov	r2, #1024
 716 0008 0021     		movs	r1, #0
 717 000a 0648     		ldr	r0, .L46
 718              	.LVL89:
 149:Hardware/OLED/oled.c ****             OLED_Refresh();        
 719              		.loc 1 149 13 is_stmt 0 view .LVU171
 720 000c FFF7FEFF 		bl	memset
 721              	.LVL90:
 150:Hardware/OLED/oled.c ****     } else {
 722              		.loc 1 150 13 is_stmt 1 view .LVU172
ARM GAS  /tmp/ccYbGAiO.s 			page 21


 723 0010 FFF7FEFF 		bl	OLED_Refresh
 724              	.LVL91:
 725              	.L42:
 154:Hardware/OLED/oled.c **** 
 726              		.loc 1 154 1 is_stmt 0 view .LVU173
 727 0014 08BD     		pop	{r3, pc}
 728              	.LVL92:
 729              	.L43:
 152:Hardware/OLED/oled.c ****     }
 730              		.loc 1 152 13 is_stmt 1 view .LVU174
 731 0016 4FF48062 		mov	r2, #1024
 732 001a 0021     		movs	r1, #0
 733 001c 0148     		ldr	r0, .L46
 734              	.LVL93:
 152:Hardware/OLED/oled.c ****     }
 735              		.loc 1 152 13 is_stmt 0 view .LVU175
 736 001e FFF7FEFF 		bl	memset
 737              	.LVL94:
 154:Hardware/OLED/oled.c **** 
 738              		.loc 1 154 1 view .LVU176
 739 0022 F7E7     		b	.L42
 740              	.L47:
 741              		.align	2
 742              	.L46:
 743 0024 00000000 		.word	.LANCHOR1
 744              		.cfi_endproc
 745              	.LFE71:
 747              		.section	.text.OLED_Init,"ax",%progbits
 748              		.align	1
 749              		.global	OLED_Init
 750              		.syntax unified
 751              		.thumb
 752              		.thumb_func
 753              		.fpu softvfp
 755              	OLED_Init:
 756              	.LVL95:
 757              	.LFB68:
  53:Hardware/OLED/oled.c ****     //HAL_Delay(800);
 758              		.loc 1 53 39 is_stmt 1 view -0
 759              		.cfi_startproc
 760              		@ args = 0, pretend = 0, frame = 40
 761              		@ frame_needed = 0, uses_anonymous_args = 0
  53:Hardware/OLED/oled.c ****     //HAL_Delay(800);
 762              		.loc 1 53 39 is_stmt 0 view .LVU178
 763 0000 70B5     		push	{r4, r5, r6, lr}
 764              	.LCFI6:
 765              		.cfi_def_cfa_offset 16
 766              		.cfi_offset 4, -16
 767              		.cfi_offset 5, -12
 768              		.cfi_offset 6, -8
 769              		.cfi_offset 14, -4
 770 0002 8AB0     		sub	sp, sp, #40
 771              	.LCFI7:
 772              		.cfi_def_cfa_offset 56
  56:Hardware/OLED/oled.c **** 
 773              		.loc 1 56 5 is_stmt 1 view .LVU179
  56:Hardware/OLED/oled.c **** 
ARM GAS  /tmp/ccYbGAiO.s 			page 22


 774              		.loc 1 56 16 is_stmt 0 view .LVU180
 775 0004 1B4E     		ldr	r6, .L52
 776 0006 3060     		str	r0, [r6]
  58:Hardware/OLED/oled.c **** 
 777              		.loc 1 58 5 is_stmt 1 view .LVU181
 778 0008 FFF7FEFF 		bl	MyI2C_Init
 779              	.LVL96:
  60:Hardware/OLED/oled.c ****         0xAE, 0xAE, 0xAE, 0xAE, 0xAE,
 780              		.loc 1 60 5 view .LVU182
  60:Hardware/OLED/oled.c ****         0xAE, 0xAE, 0xAE, 0xAE, 0xAE,
 781              		.loc 1 60 19 is_stmt 0 view .LVU183
 782 000c 01AC     		add	r4, sp, #4
 783 000e 1A4D     		ldr	r5, .L52+4
 784 0010 0FCD     		ldmia	r5!, {r0, r1, r2, r3}
 785 0012 0FC4     		stmia	r4!, {r0, r1, r2, r3}
 786 0014 0FCD     		ldmia	r5!, {r0, r1, r2, r3}
 787 0016 0FC4     		stmia	r4!, {r0, r1, r2, r3}
 788 0018 2B68     		ldr	r3, [r5]
 789 001a 2380     		strh	r3, [r4]	@ movhi
  88:Hardware/OLED/oled.c ****     MyI2C_Start(g_oled_i2c);
 790              		.loc 1 88 5 is_stmt 1 view .LVU184
  89:Hardware/OLED/oled.c ****     MyI2C_SendByte(g_oled_i2c, g_oled_addr);
 791              		.loc 1 89 5 view .LVU185
 792 001c 3068     		ldr	r0, [r6]
 793 001e FFF7FEFF 		bl	MyI2C_Start
 794              	.LVL97:
  90:Hardware/OLED/oled.c ****     MyI2C_WaitAck(g_oled_i2c);
 795              		.loc 1 90 5 view .LVU186
 796 0022 7821     		movs	r1, #120
 797 0024 3068     		ldr	r0, [r6]
 798 0026 FFF7FEFF 		bl	MyI2C_SendByte
 799              	.LVL98:
  91:Hardware/OLED/oled.c ****     MyI2C_SendByte(g_oled_i2c, 0x00); // ејҖеҗҜиҝһз»ӯе‘Ҫд»ӨжЁЎејҸ
 800              		.loc 1 91 5 view .LVU187
 801 002a 3068     		ldr	r0, [r6]
 802 002c FFF7FEFF 		bl	MyI2C_WaitAck
 803              	.LVL99:
  92:Hardware/OLED/oled.c ****     MyI2C_WaitAck(g_oled_i2c);
 804              		.loc 1 92 5 view .LVU188
 805 0030 0021     		movs	r1, #0
 806 0032 3068     		ldr	r0, [r6]
 807 0034 FFF7FEFF 		bl	MyI2C_SendByte
 808              	.LVL100:
  93:Hardware/OLED/oled.c ****     for(i = 0; i < sizeof(Init_Cmds); i++) {
 809              		.loc 1 93 5 view .LVU189
 810 0038 3068     		ldr	r0, [r6]
 811 003a FFF7FEFF 		bl	MyI2C_WaitAck
 812              	.LVL101:
  94:Hardware/OLED/oled.c ****         MyI2C_SendByte(g_oled_i2c, Init_Cmds[i]);
 813              		.loc 1 94 5 view .LVU190
  94:Hardware/OLED/oled.c ****         MyI2C_SendByte(g_oled_i2c, Init_Cmds[i]);
 814              		.loc 1 94 11 is_stmt 0 view .LVU191
 815 003e 0024     		movs	r4, #0
  94:Hardware/OLED/oled.c ****         MyI2C_SendByte(g_oled_i2c, Init_Cmds[i]);
 816              		.loc 1 94 5 view .LVU192
 817 0040 0DE0     		b	.L49
 818              	.LVL102:
ARM GAS  /tmp/ccYbGAiO.s 			page 23


 819              	.L50:
  95:Hardware/OLED/oled.c ****         MyI2C_WaitAck(g_oled_i2c);
 820              		.loc 1 95 9 is_stmt 1 discriminator 3 view .LVU193
 821 0042 04F12803 		add	r3, r4, #40
 822 0046 6B44     		add	r3, sp, r3
 823 0048 0A4D     		ldr	r5, .L52
 824 004a 13F8241C 		ldrb	r1, [r3, #-36]	@ zero_extendqisi2
 825 004e 2868     		ldr	r0, [r5]
 826 0050 FFF7FEFF 		bl	MyI2C_SendByte
 827              	.LVL103:
  96:Hardware/OLED/oled.c ****     }
 828              		.loc 1 96 9 discriminator 3 view .LVU194
 829 0054 2868     		ldr	r0, [r5]
 830 0056 FFF7FEFF 		bl	MyI2C_WaitAck
 831              	.LVL104:
  94:Hardware/OLED/oled.c ****         MyI2C_SendByte(g_oled_i2c, Init_Cmds[i]);
 832              		.loc 1 94 39 discriminator 3 view .LVU195
  94:Hardware/OLED/oled.c ****         MyI2C_SendByte(g_oled_i2c, Init_Cmds[i]);
 833              		.loc 1 94 40 is_stmt 0 discriminator 3 view .LVU196
 834 005a 0134     		adds	r4, r4, #1
 835              	.LVL105:
  94:Hardware/OLED/oled.c ****         MyI2C_SendByte(g_oled_i2c, Init_Cmds[i]);
 836              		.loc 1 94 40 discriminator 3 view .LVU197
 837 005c E4B2     		uxtb	r4, r4
 838              	.LVL106:
 839              	.L49:
  94:Hardware/OLED/oled.c ****         MyI2C_SendByte(g_oled_i2c, Init_Cmds[i]);
 840              		.loc 1 94 16 is_stmt 1 discriminator 1 view .LVU198
  94:Hardware/OLED/oled.c ****         MyI2C_SendByte(g_oled_i2c, Init_Cmds[i]);
 841              		.loc 1 94 5 is_stmt 0 discriminator 1 view .LVU199
 842 005e 212C     		cmp	r4, #33
 843 0060 EFD9     		bls	.L50
  98:Hardware/OLED/oled.c ****     
 844              		.loc 1 98 5 is_stmt 1 view .LVU200
 845 0062 044B     		ldr	r3, .L52
 846 0064 1868     		ldr	r0, [r3]
 847 0066 FFF7FEFF 		bl	MyI2C_Stop
 848              	.LVL107:
 100:Hardware/OLED/oled.c **** }
 849              		.loc 1 100 5 view .LVU201
 850 006a 0120     		movs	r0, #1
 851 006c FFF7FEFF 		bl	OLED_Clear
 852              	.LVL108:
 101:Hardware/OLED/oled.c **** 
 853              		.loc 1 101 1 is_stmt 0 view .LVU202
 854 0070 0AB0     		add	sp, sp, #40
 855              	.LCFI8:
 856              		.cfi_def_cfa_offset 16
 857              		@ sp needed
 858 0072 70BD     		pop	{r4, r5, r6, pc}
 859              	.LVL109:
 860              	.L53:
 101:Hardware/OLED/oled.c **** 
 861              		.loc 1 101 1 view .LVU203
 862              		.align	2
 863              	.L52:
 864 0074 00000000 		.word	.LANCHOR3
ARM GAS  /tmp/ccYbGAiO.s 			page 24


 865 0078 00000000 		.word	.LANCHOR4
 866              		.cfi_endproc
 867              	.LFE68:
 869              		.section	.text.OLED_Clear_Part,"ax",%progbits
 870              		.align	1
 871              		.global	OLED_Clear_Part
 872              		.syntax unified
 873              		.thumb
 874              		.thumb_func
 875              		.fpu softvfp
 877              	OLED_Clear_Part:
 878              	.LVL110:
 879              	.LFB72:
 164:Hardware/OLED/oled.c ****     uint8_t i, j;
 880              		.loc 1 164 78 is_stmt 1 view -0
 881              		.cfi_startproc
 882              		@ args = 4, pretend = 0, frame = 0
 883              		@ frame_needed = 0, uses_anonymous_args = 0
 164:Hardware/OLED/oled.c ****     uint8_t i, j;
 884              		.loc 1 164 78 is_stmt 0 view .LVU205
 885 0000 2DE9F843 		push	{r3, r4, r5, r6, r7, r8, r9, lr}
 886              	.LCFI9:
 887              		.cfi_def_cfa_offset 32
 888              		.cfi_offset 3, -32
 889              		.cfi_offset 4, -28
 890              		.cfi_offset 5, -24
 891              		.cfi_offset 6, -20
 892              		.cfi_offset 7, -16
 893              		.cfi_offset 8, -12
 894              		.cfi_offset 9, -8
 895              		.cfi_offset 14, -4
 896 0004 0F46     		mov	r7, r1
 897 0006 9846     		mov	r8, r3
 898 0008 9DF82090 		ldrb	r9, [sp, #32]	@ zero_extendqisi2
 165:Hardware/OLED/oled.c ****     uint8_t page, bit_mask;
 899              		.loc 1 165 5 is_stmt 1 view .LVU206
 166:Hardware/OLED/oled.c **** 
 900              		.loc 1 166 5 view .LVU207
 170:Hardware/OLED/oled.c ****     {
 901              		.loc 1 170 5 view .LVU208
 902              	.LVL111:
 170:Hardware/OLED/oled.c ****     {
 903              		.loc 1 170 12 is_stmt 0 view .LVU209
 904 000c 0E46     		mov	r6, r1
 170:Hardware/OLED/oled.c ****     {
 905              		.loc 1 170 5 view .LVU210
 906 000e 01E0     		b	.L55
 907              	.LVL112:
 908              	.L58:
 170:Hardware/OLED/oled.c ****     {
 909              		.loc 1 170 30 is_stmt 1 discriminator 2 view .LVU211
 170:Hardware/OLED/oled.c ****     {
 910              		.loc 1 170 31 is_stmt 0 discriminator 2 view .LVU212
 911 0010 0136     		adds	r6, r6, #1
 912              	.LVL113:
 170:Hardware/OLED/oled.c ****     {
 913              		.loc 1 170 31 discriminator 2 view .LVU213
ARM GAS  /tmp/ccYbGAiO.s 			page 25


 914 0012 F6B2     		uxtb	r6, r6
 915              	.LVL114:
 916              	.L55:
 170:Hardware/OLED/oled.c ****     {
 917              		.loc 1 170 17 is_stmt 1 discriminator 1 view .LVU214
 170:Hardware/OLED/oled.c ****     {
 918              		.loc 1 170 24 is_stmt 0 discriminator 1 view .LVU215
 919 0014 07EB0803 		add	r3, r7, r8
 170:Hardware/OLED/oled.c ****     {
 920              		.loc 1 170 5 discriminator 1 view .LVU216
 921 0018 9E42     		cmp	r6, r3
 922 001a 1DDA     		bge	.L56
 173:Hardware/OLED/oled.c **** 
 923              		.loc 1 173 9 is_stmt 1 view .LVU217
 173:Hardware/OLED/oled.c **** 
 924              		.loc 1 173 12 is_stmt 0 view .LVU218
 925 001c 3F2E     		cmp	r6, #63
 926 001e 1BD8     		bhi	.L56
 176:Hardware/OLED/oled.c ****         
 927              		.loc 1 176 9 is_stmt 1 view .LVU219
 176:Hardware/OLED/oled.c ****         
 928              		.loc 1 176 14 is_stmt 0 view .LVU220
 929 0020 F508     		lsrs	r5, r6, #3
 930              	.LVL115:
 182:Hardware/OLED/oled.c **** 
 931              		.loc 1 182 9 is_stmt 1 view .LVU221
 182:Hardware/OLED/oled.c **** 
 932              		.loc 1 182 30 is_stmt 0 view .LVU222
 933 0022 06F00703 		and	r3, r6, #7
 182:Hardware/OLED/oled.c **** 
 934              		.loc 1 182 24 view .LVU223
 935 0026 0124     		movs	r4, #1
 936 0028 9C40     		lsls	r4, r4, r3
 182:Hardware/OLED/oled.c **** 
 937              		.loc 1 182 18 view .LVU224
 938 002a E443     		mvns	r4, r4
 939 002c E4B2     		uxtb	r4, r4
 940              	.LVL116:
 185:Hardware/OLED/oled.c ****         {
 941              		.loc 1 185 9 is_stmt 1 view .LVU225
 185:Hardware/OLED/oled.c ****         {
 942              		.loc 1 185 16 is_stmt 0 view .LVU226
 943 002e 8446     		mov	ip, r0
 944              	.LVL117:
 945              	.L57:
 185:Hardware/OLED/oled.c ****         {
 946              		.loc 1 185 21 is_stmt 1 discriminator 1 view .LVU227
 185:Hardware/OLED/oled.c ****         {
 947              		.loc 1 185 23 is_stmt 0 discriminator 1 view .LVU228
 948 0030 6146     		mov	r1, ip
 185:Hardware/OLED/oled.c ****         {
 949              		.loc 1 185 28 discriminator 1 view .LVU229
 950 0032 8318     		adds	r3, r0, r2
 185:Hardware/OLED/oled.c ****         {
 951              		.loc 1 185 9 discriminator 1 view .LVU230
 952 0034 9C45     		cmp	ip, r3
 953 0036 EBDA     		bge	.L58
ARM GAS  /tmp/ccYbGAiO.s 			page 26


 188:Hardware/OLED/oled.c **** 
 954              		.loc 1 188 13 is_stmt 1 view .LVU231
 188:Hardware/OLED/oled.c **** 
 955              		.loc 1 188 16 is_stmt 0 view .LVU232
 956 0038 1CF0800F 		tst	ip, #128
 957 003c E8D1     		bne	.L58
 191:Hardware/OLED/oled.c ****         }
 958              		.loc 1 191 13 is_stmt 1 discriminator 2 view .LVU233
 191:Hardware/OLED/oled.c ****         }
 959              		.loc 1 191 32 is_stmt 0 discriminator 2 view .LVU234
 960 003e 114B     		ldr	r3, .L67
 961 0040 03EBC51E 		add	lr, r3, r5, lsl #7
 962 0044 1EF80130 		ldrb	r3, [lr, r1]	@ zero_extendqisi2
 963 0048 2340     		ands	r3, r3, r4
 964 004a 0EF80130 		strb	r3, [lr, r1]
 185:Hardware/OLED/oled.c ****         {
 965              		.loc 1 185 34 is_stmt 1 discriminator 2 view .LVU235
 185:Hardware/OLED/oled.c ****         {
 966              		.loc 1 185 35 is_stmt 0 discriminator 2 view .LVU236
 967 004e 0CF1010C 		add	ip, ip, #1
 968              	.LVL118:
 185:Hardware/OLED/oled.c ****         {
 969              		.loc 1 185 35 discriminator 2 view .LVU237
 970 0052 5FFA8CFC 		uxtb	ip, ip
 971              	.LVL119:
 185:Hardware/OLED/oled.c ****         {
 972              		.loc 1 185 35 discriminator 2 view .LVU238
 973 0056 EBE7     		b	.L57
 974              	.LVL120:
 975              	.L56:
 196:Hardware/OLED/oled.c ****     {
 976              		.loc 1 196 5 is_stmt 1 view .LVU239
 196:Hardware/OLED/oled.c ****     {
 977              		.loc 1 196 8 is_stmt 0 view .LVU240
 978 0058 B9F1000F 		cmp	r9, #0
 979 005c 0DD0     		beq	.L54
 980              	.LBB4:
 198:Hardware/OLED/oled.c ****         uint8_t pg_end   = (y + h - 1) / 8;
 981              		.loc 1 198 9 is_stmt 1 view .LVU241
 198:Hardware/OLED/oled.c ****         uint8_t pg_end   = (y + h - 1) / 8;
 982              		.loc 1 198 17 is_stmt 0 view .LVU242
 983 005e F908     		lsrs	r1, r7, #3
 984              	.LVL121:
 199:Hardware/OLED/oled.c ****         
 985              		.loc 1 199 9 is_stmt 1 view .LVU243
 199:Hardware/OLED/oled.c ****         
 986              		.loc 1 199 40 is_stmt 0 view .LVU244
 987 0060 013B     		subs	r3, r3, #1
 988 0062 0CD4     		bmi	.L66
 989              	.L62:
 199:Hardware/OLED/oled.c ****         
 990              		.loc 1 199 17 view .LVU245
 991 0064 C3F3C703 		ubfx	r3, r3, #3, #8
 992              	.LVL122:
 201:Hardware/OLED/oled.c **** 
 993              		.loc 1 201 9 is_stmt 1 view .LVU246
 201:Hardware/OLED/oled.c **** 
ARM GAS  /tmp/ccYbGAiO.s 			page 27


 994              		.loc 1 201 12 is_stmt 0 view .LVU247
 995 0068 072B     		cmp	r3, #7
 996 006a 00D9     		bls	.L63
 201:Hardware/OLED/oled.c **** 
 997              		.loc 1 201 32 view .LVU248
 998 006c 0723     		movs	r3, #7
 999              	.LVL123:
 1000              	.L63:
 204:Hardware/OLED/oled.c ****     }
 1001              		.loc 1 204 9 is_stmt 1 view .LVU249
 204:Hardware/OLED/oled.c ****     }
 1002              		.loc 1 204 50 is_stmt 0 view .LVU250
 1003 006e 5B1A     		subs	r3, r3, r1
 1004              	.LVL124:
 204:Hardware/OLED/oled.c ****     }
 1005              		.loc 1 204 50 view .LVU251
 1006 0070 DBB2     		uxtb	r3, r3
 204:Hardware/OLED/oled.c ****     }
 1007              		.loc 1 204 9 view .LVU252
 1008 0072 0133     		adds	r3, r3, #1
 1009 0074 DBB2     		uxtb	r3, r3
 1010 0076 FFF7FEFF 		bl	OLED_Refresh_Part
 1011              	.LVL125:
 1012              	.L54:
 204:Hardware/OLED/oled.c ****     }
 1013              		.loc 1 204 9 view .LVU253
 1014              	.LBE4:
 206:Hardware/OLED/oled.c **** 
 1015              		.loc 1 206 1 view .LVU254
 1016 007a BDE8F883 		pop	{r3, r4, r5, r6, r7, r8, r9, pc}
 1017              	.LVL126:
 1018              	.L66:
 1019              	.LBB5:
 199:Hardware/OLED/oled.c ****         
 1020              		.loc 1 199 40 view .LVU255
 1021 007e 0733     		adds	r3, r3, #7
 1022 0080 F0E7     		b	.L62
 1023              	.L68:
 1024 0082 00BF     		.align	2
 1025              	.L67:
 1026 0084 00000000 		.word	.LANCHOR1
 1027              	.LBE5:
 1028              		.cfi_endproc
 1029              	.LFE72:
 1031              		.section	.text.OLED_DrawPoint,"ax",%progbits
 1032              		.align	1
 1033              		.global	OLED_DrawPoint
 1034              		.syntax unified
 1035              		.thumb
 1036              		.thumb_func
 1037              		.fpu softvfp
 1039              	OLED_DrawPoint:
 1040              	.LVL127:
 1041              	.LFB73:
 212:Hardware/OLED/oled.c ****     if (x > 127 || y > 63) return; // иҫ№з•ҢдҝқжҠӨ
 1042              		.loc 1 212 54 is_stmt 1 view -0
 1043              		.cfi_startproc
ARM GAS  /tmp/ccYbGAiO.s 			page 28


 1044              		@ args = 0, pretend = 0, frame = 0
 1045              		@ frame_needed = 0, uses_anonymous_args = 0
 1046              		@ link register save eliminated.
 213:Hardware/OLED/oled.c ****     
 1047              		.loc 1 213 5 view .LVU257
 213:Hardware/OLED/oled.c ****     
 1048              		.loc 1 213 8 is_stmt 0 view .LVU258
 1049 0000 10F0800F 		tst	r0, #128
 1050 0004 18D1     		bne	.L69
 213:Hardware/OLED/oled.c ****     
 1051              		.loc 1 213 17 discriminator 2 view .LVU259
 1052 0006 3F29     		cmp	r1, #63
 1053 0008 16D8     		bhi	.L69
 216:Hardware/OLED/oled.c ****     uint8_t bit_offset = y % 8; // з®—дҪҚ
 1054              		.loc 1 216 5 is_stmt 1 view .LVU260
 216:Hardware/OLED/oled.c ****     uint8_t bit_offset = y % 8; // з®—дҪҚ
 1055              		.loc 1 216 13 is_stmt 0 view .LVU261
 1056 000a 4FEAD10C 		lsr	ip, r1, #3
 1057              	.LVL128:
 217:Hardware/OLED/oled.c **** 
 1058              		.loc 1 217 5 is_stmt 1 view .LVU262
 217:Hardware/OLED/oled.c **** 
 1059              		.loc 1 217 13 is_stmt 0 view .LVU263
 1060 000e 01F00701 		and	r1, r1, #7
 1061              	.LVL129:
 219:Hardware/OLED/oled.c ****     else   OLED_GRAM[page][x] &= ~(1 << bit_offset);    // зҪ®0 (зҒӯ)
 1062              		.loc 1 219 5 is_stmt 1 view .LVU264
 219:Hardware/OLED/oled.c ****     else   OLED_GRAM[page][x] &= ~(1 << bit_offset);    // зҪ®0 (зҒӯ)
 1063              		.loc 1 219 8 is_stmt 0 view .LVU265
 1064 0012 42B1     		cbz	r2, .L71
 219:Hardware/OLED/oled.c ****     else   OLED_GRAM[page][x] &= ~(1 << bit_offset);    // зҪ®0 (зҒӯ)
 1065              		.loc 1 219 12 is_stmt 1 discriminator 1 view .LVU266
 219:Hardware/OLED/oled.c ****     else   OLED_GRAM[page][x] &= ~(1 << bit_offset);    // зҪ®0 (зҒӯ)
 1066              		.loc 1 219 37 is_stmt 0 discriminator 1 view .LVU267
 1067 0014 0122     		movs	r2, #1
 1068              	.LVL130:
 219:Hardware/OLED/oled.c ****     else   OLED_GRAM[page][x] &= ~(1 << bit_offset);    // зҪ®0 (зҒӯ)
 1069              		.loc 1 219 37 discriminator 1 view .LVU268
 1070 0016 8A40     		lsls	r2, r2, r1
 219:Hardware/OLED/oled.c ****     else   OLED_GRAM[page][x] &= ~(1 << bit_offset);    // зҪ®0 (зҒӯ)
 1071              		.loc 1 219 31 discriminator 1 view .LVU269
 1072 0018 084B     		ldr	r3, .L72
 1073 001a 03EBCC13 		add	r3, r3, ip, lsl #7
 1074 001e 195C     		ldrb	r1, [r3, r0]	@ zero_extendqisi2
 1075              	.LVL131:
 219:Hardware/OLED/oled.c ****     else   OLED_GRAM[page][x] &= ~(1 << bit_offset);    // зҪ®0 (зҒӯ)
 1076              		.loc 1 219 31 discriminator 1 view .LVU270
 1077 0020 1143     		orrs	r1, r1, r2
 1078 0022 1954     		strb	r1, [r3, r0]
 1079 0024 7047     		bx	lr
 1080              	.LVL132:
 1081              	.L71:
 220:Hardware/OLED/oled.c **** }
 1082              		.loc 1 220 12 is_stmt 1 view .LVU271
 220:Hardware/OLED/oled.c **** }
 1083              		.loc 1 220 38 is_stmt 0 view .LVU272
 1084 0026 0122     		movs	r2, #1
ARM GAS  /tmp/ccYbGAiO.s 			page 29


 1085              	.LVL133:
 220:Hardware/OLED/oled.c **** }
 1086              		.loc 1 220 38 view .LVU273
 1087 0028 8A40     		lsls	r2, r2, r1
 220:Hardware/OLED/oled.c **** }
 1088              		.loc 1 220 31 view .LVU274
 1089 002a 044B     		ldr	r3, .L72
 1090 002c 03EBCC13 		add	r3, r3, ip, lsl #7
 1091 0030 195C     		ldrb	r1, [r3, r0]	@ zero_extendqisi2
 1092              	.LVL134:
 220:Hardware/OLED/oled.c **** }
 1093              		.loc 1 220 31 view .LVU275
 1094 0032 21EA0201 		bic	r1, r1, r2
 1095 0036 1954     		strb	r1, [r3, r0]
 1096              	.LVL135:
 1097              	.L69:
 221:Hardware/OLED/oled.c **** 
 1098              		.loc 1 221 1 view .LVU276
 1099 0038 7047     		bx	lr
 1100              	.L73:
 1101 003a 00BF     		.align	2
 1102              	.L72:
 1103 003c 00000000 		.word	.LANCHOR1
 1104              		.cfi_endproc
 1105              	.LFE73:
 1107              		.section	.text.OLED_ShowImage,"ax",%progbits
 1108              		.align	1
 1109              		.global	OLED_ShowImage
 1110              		.syntax unified
 1111              		.thumb
 1112              		.thumb_func
 1113              		.fpu softvfp
 1115              	OLED_ShowImage:
 1116              	.LVL136:
 1117              	.LFB74:
 223:Hardware/OLED/oled.c ****     // еҗҢж ·дҪҝз”Ёж ҮеҮҶеә“ memcpy иҝӣиЎҢеҶ…еӯҳжӢ·иҙқ
 1118              		.loc 1 223 43 is_stmt 1 view -0
 1119              		.cfi_startproc
 1120              		@ args = 0, pretend = 0, frame = 0
 1121              		@ frame_needed = 0, uses_anonymous_args = 0
 223:Hardware/OLED/oled.c ****     // еҗҢж ·дҪҝз”Ёж ҮеҮҶеә“ memcpy иҝӣиЎҢеҶ…еӯҳжӢ·иҙқ
 1122              		.loc 1 223 43 is_stmt 0 view .LVU278
 1123 0000 08B5     		push	{r3, lr}
 1124              	.LCFI10:
 1125              		.cfi_def_cfa_offset 8
 1126              		.cfi_offset 3, -8
 1127              		.cfi_offset 14, -4
 1128 0002 0146     		mov	r1, r0
 225:Hardware/OLED/oled.c ****     OLED_Refresh();
 1129              		.loc 1 225 5 is_stmt 1 view .LVU279
 1130 0004 4FF48062 		mov	r2, #1024
 1131 0008 0248     		ldr	r0, .L76
 1132              	.LVL137:
 225:Hardware/OLED/oled.c ****     OLED_Refresh();
 1133              		.loc 1 225 5 is_stmt 0 view .LVU280
 1134 000a FFF7FEFF 		bl	memcpy
 1135              	.LVL138:
ARM GAS  /tmp/ccYbGAiO.s 			page 30


 226:Hardware/OLED/oled.c **** }
 1136              		.loc 1 226 5 is_stmt 1 view .LVU281
 1137 000e FFF7FEFF 		bl	OLED_Refresh
 1138              	.LVL139:
 227:Hardware/OLED/oled.c **** 
 1139              		.loc 1 227 1 is_stmt 0 view .LVU282
 1140 0012 08BD     		pop	{r3, pc}
 1141              	.L77:
 1142              		.align	2
 1143              	.L76:
 1144 0014 00000000 		.word	.LANCHOR1
 1145              		.cfi_endproc
 1146              	.LFE74:
 1148              		.section	.text.OLED_ShowCharF8X16,"ax",%progbits
 1149              		.align	1
 1150              		.global	OLED_ShowCharF8X16
 1151              		.syntax unified
 1152              		.thumb
 1153              		.thumb_func
 1154              		.fpu softvfp
 1156              	OLED_ShowCharF8X16:
 1157              	.LVL140:
 1158              	.LFB75:
 234:Hardware/OLED/oled.c ****     uint8_t i, c = chr - ' '; // еҫ—еҲ°еҒҸз§»еҖј
 1159              		.loc 1 234 71 is_stmt 1 view -0
 1160              		.cfi_startproc
 1161              		@ args = 0, pretend = 0, frame = 0
 1162              		@ frame_needed = 0, uses_anonymous_args = 0
 235:Hardware/OLED/oled.c ****     if (x > 120 || y > 6 || c > 94) return; // иҫ№з•ҢдҝқжҠӨ
 1163              		.loc 1 235 5 view .LVU284
 236:Hardware/OLED/oled.c **** 
 1164              		.loc 1 236 5 view .LVU285
 236:Hardware/OLED/oled.c **** 
 1165              		.loc 1 236 8 is_stmt 0 view .LVU286
 1166 0000 7828     		cmp	r0, #120
 1167 0002 27D8     		bhi	.L83
 234:Hardware/OLED/oled.c ****     uint8_t i, c = chr - ' '; // еҫ—еҲ°еҒҸз§»еҖј
 1168              		.loc 1 234 71 discriminator 2 view .LVU287
 1169 0004 F8B5     		push	{r3, r4, r5, r6, r7, lr}
 1170              	.LCFI11:
 1171              		.cfi_def_cfa_offset 24
 1172              		.cfi_offset 3, -24
 1173              		.cfi_offset 4, -20
 1174              		.cfi_offset 5, -16
 1175              		.cfi_offset 6, -12
 1176              		.cfi_offset 7, -8
 1177              		.cfi_offset 14, -4
 1178 0006 203A     		subs	r2, r2, #32
 1179              	.LVL141:
 234:Hardware/OLED/oled.c ****     uint8_t i, c = chr - ' '; // еҫ—еҲ°еҒҸз§»еҖј
 1180              		.loc 1 234 71 discriminator 2 view .LVU288
 1181 0008 D5B2     		uxtb	r5, r2
 236:Hardware/OLED/oled.c **** 
 1182              		.loc 1 236 17 discriminator 2 view .LVU289
 1183 000a 0629     		cmp	r1, #6
 1184 000c 1CD8     		bhi	.L78
 236:Hardware/OLED/oled.c **** 
ARM GAS  /tmp/ccYbGAiO.s 			page 31


 1185              		.loc 1 236 26 discriminator 4 view .LVU290
 1186 000e 5E2D     		cmp	r5, #94
 1187 0010 1AD8     		bhi	.L78
 238:Hardware/OLED/oled.c ****         OLED_GRAM[y][x + i] = F8X16[c][i];
 1188              		.loc 1 238 12 view .LVU291
 1189 0012 0022     		movs	r2, #0
 1190 0014 15E0     		b	.L80
 1191              	.LVL142:
 1192              	.L81:
 239:Hardware/OLED/oled.c ****         OLED_GRAM[y + 1][x + i] = F8X16[c][i + 8];
 1193              		.loc 1 239 9 is_stmt 1 discriminator 3 view .LVU292
 239:Hardware/OLED/oled.c ****         OLED_GRAM[y + 1][x + i] = F8X16[c][i + 8];
 1194              		.loc 1 239 24 is_stmt 0 discriminator 3 view .LVU293
 1195 0016 8618     		adds	r6, r0, r2
 239:Hardware/OLED/oled.c ****         OLED_GRAM[y + 1][x + i] = F8X16[c][i + 8];
 1196              		.loc 1 239 39 discriminator 3 view .LVU294
 1197 0018 0F4C     		ldr	r4, .L87
 1198 001a 04EB051C 		add	ip, r4, r5, lsl #4
 1199 001e 1CF802E0 		ldrb	lr, [ip, r2]	@ zero_extendqisi2
 239:Hardware/OLED/oled.c ****         OLED_GRAM[y + 1][x + i] = F8X16[c][i + 8];
 1200              		.loc 1 239 29 discriminator 3 view .LVU295
 1201 0022 0E4C     		ldr	r4, .L87+4
 1202 0024 04EBC117 		add	r7, r4, r1, lsl #7
 1203 0028 07F806E0 		strb	lr, [r7, r6]
 240:Hardware/OLED/oled.c ****     }
 1204              		.loc 1 240 9 is_stmt 1 discriminator 3 view .LVU296
 240:Hardware/OLED/oled.c ****     }
 1205              		.loc 1 240 46 is_stmt 0 discriminator 3 view .LVU297
 1206 002c 02F10807 		add	r7, r2, #8
 240:Hardware/OLED/oled.c ****     }
 1207              		.loc 1 240 21 discriminator 3 view .LVU298
 1208 0030 01F1010E 		add	lr, r1, #1
 240:Hardware/OLED/oled.c ****     }
 1209              		.loc 1 240 43 discriminator 3 view .LVU299
 1210 0034 1CF80770 		ldrb	r7, [ip, r7]	@ zero_extendqisi2
 240:Hardware/OLED/oled.c ****     }
 1211              		.loc 1 240 33 discriminator 3 view .LVU300
 1212 0038 04EBCE14 		add	r4, r4, lr, lsl #7
 1213 003c A755     		strb	r7, [r4, r6]
 238:Hardware/OLED/oled.c ****         OLED_GRAM[y][x + i] = F8X16[c][i];
 1214              		.loc 1 238 24 is_stmt 1 discriminator 3 view .LVU301
 238:Hardware/OLED/oled.c ****         OLED_GRAM[y][x + i] = F8X16[c][i];
 1215              		.loc 1 238 25 is_stmt 0 discriminator 3 view .LVU302
 1216 003e 0132     		adds	r2, r2, #1
 1217              	.LVL143:
 238:Hardware/OLED/oled.c ****         OLED_GRAM[y][x + i] = F8X16[c][i];
 1218              		.loc 1 238 25 discriminator 3 view .LVU303
 1219 0040 D2B2     		uxtb	r2, r2
 1220              	.LVL144:
 1221              	.L80:
 238:Hardware/OLED/oled.c ****         OLED_GRAM[y][x + i] = F8X16[c][i];
 1222              		.loc 1 238 17 is_stmt 1 discriminator 1 view .LVU304
 238:Hardware/OLED/oled.c ****         OLED_GRAM[y][x + i] = F8X16[c][i];
 1223              		.loc 1 238 5 is_stmt 0 discriminator 1 view .LVU305
 1224 0042 072A     		cmp	r2, #7
 1225 0044 E7D9     		bls	.L81
 242:Hardware/OLED/oled.c **** }
ARM GAS  /tmp/ccYbGAiO.s 			page 32


 1226              		.loc 1 242 5 is_stmt 1 view .LVU306
 242:Hardware/OLED/oled.c **** }
 1227              		.loc 1 242 8 is_stmt 0 view .LVU307
 1228 0046 03B9     		cbnz	r3, .L86
 1229              	.LVL145:
 1230              	.L78:
 243:Hardware/OLED/oled.c **** 
 1231              		.loc 1 243 1 view .LVU308
 1232 0048 F8BD     		pop	{r3, r4, r5, r6, r7, pc}
 1233              	.LVL146:
 1234              	.L86:
 242:Hardware/OLED/oled.c **** }
 1235              		.loc 1 242 12 is_stmt 1 discriminator 1 view .LVU309
 1236 004a 0223     		movs	r3, #2
 1237              	.LVL147:
 242:Hardware/OLED/oled.c **** }
 1238              		.loc 1 242 12 is_stmt 0 discriminator 1 view .LVU310
 1239 004c 0822     		movs	r2, #8
 1240              	.LVL148:
 242:Hardware/OLED/oled.c **** }
 1241              		.loc 1 242 12 discriminator 1 view .LVU311
 1242 004e FFF7FEFF 		bl	OLED_Refresh_Part
 1243              	.LVL149:
 242:Hardware/OLED/oled.c **** }
 1244              		.loc 1 242 12 discriminator 1 view .LVU312
 1245 0052 F9E7     		b	.L78
 1246              	.LVL150:
 1247              	.L83:
 1248              	.LCFI12:
 1249              		.cfi_def_cfa_offset 0
 1250              		.cfi_restore 3
 1251              		.cfi_restore 4
 1252              		.cfi_restore 5
 1253              		.cfi_restore 6
 1254              		.cfi_restore 7
 1255              		.cfi_restore 14
 242:Hardware/OLED/oled.c **** }
 1256              		.loc 1 242 12 discriminator 1 view .LVU313
 1257 0054 7047     		bx	lr
 1258              	.L88:
 1259 0056 00BF     		.align	2
 1260              	.L87:
 1261 0058 00000000 		.word	.LANCHOR5
 1262 005c 00000000 		.word	.LANCHOR1
 1263              		.cfi_endproc
 1264              	.LFE75:
 1266              		.section	.text.OLED_ShowCharF6X8,"ax",%progbits
 1267              		.align	1
 1268              		.global	OLED_ShowCharF6X8
 1269              		.syntax unified
 1270              		.thumb
 1271              		.thumb_func
 1272              		.fpu softvfp
 1274              	OLED_ShowCharF6X8:
 1275              	.LVL151:
 1276              	.LFB76:
 246:Hardware/OLED/oled.c ****     uint8_t i, c = chr - ' ';
ARM GAS  /tmp/ccYbGAiO.s 			page 33


 1277              		.loc 1 246 70 is_stmt 1 view -0
 1278              		.cfi_startproc
 1279              		@ args = 0, pretend = 0, frame = 0
 1280              		@ frame_needed = 0, uses_anonymous_args = 0
 247:Hardware/OLED/oled.c ****     if (x > 122 || y > 7 || c > 94) return;
 1281              		.loc 1 247 5 view .LVU315
 248:Hardware/OLED/oled.c **** 
 1282              		.loc 1 248 5 view .LVU316
 248:Hardware/OLED/oled.c **** 
 1283              		.loc 1 248 8 is_stmt 0 view .LVU317
 1284 0000 7A28     		cmp	r0, #122
 1285 0002 21D8     		bhi	.L94
 1286 0004 203A     		subs	r2, r2, #32
 1287              	.LVL152:
 248:Hardware/OLED/oled.c **** 
 1288              		.loc 1 248 8 view .LVU318
 1289 0006 5FFA82FC 		uxtb	ip, r2
 248:Hardware/OLED/oled.c **** 
 1290              		.loc 1 248 17 discriminator 2 view .LVU319
 1291 000a 0729     		cmp	r1, #7
 1292 000c 1CD8     		bhi	.L94
 248:Hardware/OLED/oled.c **** 
 1293              		.loc 1 248 26 discriminator 4 view .LVU320
 1294 000e BCF15E0F 		cmp	ip, #94
 1295 0012 19D8     		bhi	.L94
 246:Hardware/OLED/oled.c ****     uint8_t i, c = chr - ' ';
 1296              		.loc 1 246 70 view .LVU321
 1297 0014 70B5     		push	{r4, r5, r6, lr}
 1298              	.LCFI13:
 1299              		.cfi_def_cfa_offset 16
 1300              		.cfi_offset 4, -16
 1301              		.cfi_offset 5, -12
 1302              		.cfi_offset 6, -8
 1303              		.cfi_offset 14, -4
 250:Hardware/OLED/oled.c ****         OLED_GRAM[y][x + i] = F6X8[c][i];
 1304              		.loc 1 250 12 view .LVU322
 1305 0016 0022     		movs	r2, #0
 1306 0018 0DE0     		b	.L91
 1307              	.LVL153:
 1308              	.L92:
 251:Hardware/OLED/oled.c ****     }
 1309              		.loc 1 251 9 is_stmt 1 discriminator 3 view .LVU323
 251:Hardware/OLED/oled.c ****     }
 1310              		.loc 1 251 24 is_stmt 0 discriminator 3 view .LVU324
 1311 001a 8618     		adds	r6, r0, r2
 251:Hardware/OLED/oled.c ****     }
 1312              		.loc 1 251 38 discriminator 3 view .LVU325
 1313 001c 0CEB4C04 		add	r4, ip, ip, lsl #1
 1314 0020 0A4D     		ldr	r5, .L98
 1315 0022 05EB4404 		add	r4, r5, r4, lsl #1
 1316 0026 A55C     		ldrb	r5, [r4, r2]	@ zero_extendqisi2
 251:Hardware/OLED/oled.c ****     }
 1317              		.loc 1 251 29 discriminator 3 view .LVU326
 1318 0028 094C     		ldr	r4, .L98+4
 1319 002a 04EBC11E 		add	lr, r4, r1, lsl #7
 1320 002e 0EF80650 		strb	r5, [lr, r6]
 250:Hardware/OLED/oled.c ****         OLED_GRAM[y][x + i] = F6X8[c][i];
ARM GAS  /tmp/ccYbGAiO.s 			page 34


 1321              		.loc 1 250 24 is_stmt 1 discriminator 3 view .LVU327
 250:Hardware/OLED/oled.c ****         OLED_GRAM[y][x + i] = F6X8[c][i];
 1322              		.loc 1 250 25 is_stmt 0 discriminator 3 view .LVU328
 1323 0032 0132     		adds	r2, r2, #1
 1324              	.LVL154:
 250:Hardware/OLED/oled.c ****         OLED_GRAM[y][x + i] = F6X8[c][i];
 1325              		.loc 1 250 25 discriminator 3 view .LVU329
 1326 0034 D2B2     		uxtb	r2, r2
 1327              	.LVL155:
 1328              	.L91:
 250:Hardware/OLED/oled.c ****         OLED_GRAM[y][x + i] = F6X8[c][i];
 1329              		.loc 1 250 17 is_stmt 1 discriminator 1 view .LVU330
 250:Hardware/OLED/oled.c ****         OLED_GRAM[y][x + i] = F6X8[c][i];
 1330              		.loc 1 250 5 is_stmt 0 discriminator 1 view .LVU331
 1331 0036 052A     		cmp	r2, #5
 1332 0038 EFD9     		bls	.L92
 253:Hardware/OLED/oled.c **** }
 1333              		.loc 1 253 5 is_stmt 1 view .LVU332
 253:Hardware/OLED/oled.c **** }
 1334              		.loc 1 253 8 is_stmt 0 view .LVU333
 1335 003a 03B9     		cbnz	r3, .L97
 1336              	.LVL156:
 1337              	.L89:
 254:Hardware/OLED/oled.c **** 
 1338              		.loc 1 254 1 view .LVU334
 1339 003c 70BD     		pop	{r4, r5, r6, pc}
 1340              	.LVL157:
 1341              	.L97:
 253:Hardware/OLED/oled.c **** }
 1342              		.loc 1 253 12 is_stmt 1 discriminator 1 view .LVU335
 1343 003e 0123     		movs	r3, #1
 1344              	.LVL158:
 253:Hardware/OLED/oled.c **** }
 1345              		.loc 1 253 12 is_stmt 0 discriminator 1 view .LVU336
 1346 0040 0622     		movs	r2, #6
 1347              	.LVL159:
 253:Hardware/OLED/oled.c **** }
 1348              		.loc 1 253 12 discriminator 1 view .LVU337
 1349 0042 FFF7FEFF 		bl	OLED_Refresh_Part
 1350              	.LVL160:
 253:Hardware/OLED/oled.c **** }
 1351              		.loc 1 253 12 discriminator 1 view .LVU338
 1352 0046 F9E7     		b	.L89
 1353              	.LVL161:
 1354              	.L94:
 1355              	.LCFI14:
 1356              		.cfi_def_cfa_offset 0
 1357              		.cfi_restore 4
 1358              		.cfi_restore 5
 1359              		.cfi_restore 6
 1360              		.cfi_restore 14
 253:Hardware/OLED/oled.c **** }
 1361              		.loc 1 253 12 discriminator 1 view .LVU339
 1362 0048 7047     		bx	lr
 1363              	.L99:
 1364 004a 00BF     		.align	2
 1365              	.L98:
ARM GAS  /tmp/ccYbGAiO.s 			page 35


 1366 004c 00000000 		.word	.LANCHOR6
 1367 0050 00000000 		.word	.LANCHOR1
 1368              		.cfi_endproc
 1369              	.LFE76:
 1371              		.section	.text.OLED_ShowStringF8X16,"ax",%progbits
 1372              		.align	1
 1373              		.global	OLED_ShowStringF8X16
 1374              		.syntax unified
 1375              		.thumb
 1376              		.thumb_func
 1377              		.fpu softvfp
 1379              	OLED_ShowStringF8X16:
 1380              	.LVL162:
 1381              	.LFB77:
 257:Hardware/OLED/oled.c ****     uint8_t i, j, chr;
 1382              		.loc 1 257 74 is_stmt 1 view -0
 1383              		.cfi_startproc
 1384              		@ args = 0, pretend = 0, frame = 0
 1385              		@ frame_needed = 0, uses_anonymous_args = 0
 257:Hardware/OLED/oled.c ****     uint8_t i, j, chr;
 1386              		.loc 1 257 74 is_stmt 0 view .LVU341
 1387 0000 2DE9F84F 		push	{r3, r4, r5, r6, r7, r8, r9, r10, fp, lr}
 1388              	.LCFI15:
 1389              		.cfi_def_cfa_offset 40
 1390              		.cfi_offset 3, -40
 1391              		.cfi_offset 4, -36
 1392              		.cfi_offset 5, -32
 1393              		.cfi_offset 6, -28
 1394              		.cfi_offset 7, -24
 1395              		.cfi_offset 8, -20
 1396              		.cfi_offset 9, -16
 1397              		.cfi_offset 10, -12
 1398              		.cfi_offset 11, -8
 1399              		.cfi_offset 14, -4
 1400 0004 0646     		mov	r6, r0
 1401 0006 0C46     		mov	r4, r1
 1402 0008 1546     		mov	r5, r2
 1403 000a 1F46     		mov	r7, r3
 258:Hardware/OLED/oled.c ****     uint8_t len = strlen(String);
 1404              		.loc 1 258 5 is_stmt 1 view .LVU342
 259:Hardware/OLED/oled.c **** 
 1405              		.loc 1 259 5 view .LVU343
 259:Hardware/OLED/oled.c **** 
 1406              		.loc 1 259 19 is_stmt 0 view .LVU344
 1407 000c 1046     		mov	r0, r2
 1408              	.LVL163:
 259:Hardware/OLED/oled.c **** 
 1409              		.loc 1 259 19 view .LVU345
 1410 000e FFF7FEFF 		bl	strlen
 1411              	.LVL164:
 259:Hardware/OLED/oled.c **** 
 1412              		.loc 1 259 13 view .LVU346
 1413 0012 5FFA80FA 		uxtb	r10, r0
 1414              	.LVL165:
 261:Hardware/OLED/oled.c ****         chr = String[i] - ' ';
 1415              		.loc 1 261 5 is_stmt 1 view .LVU347
 261:Hardware/OLED/oled.c ****         chr = String[i] - ' ';
ARM GAS  /tmp/ccYbGAiO.s 			page 36


 1416              		.loc 1 261 12 is_stmt 0 view .LVU348
 1417 0016 4FF00009 		mov	r9, #0
 261:Hardware/OLED/oled.c ****         chr = String[i] - ' ';
 1418              		.loc 1 261 5 view .LVU349
 1419 001a 1FE0     		b	.L101
 1420              	.LVL166:
 1421              	.L104:
 266:Hardware/OLED/oled.c ****             OLED_GRAM[y + 1][x + i * 8 + j] = F8X16[chr][j + 8];
 1422              		.loc 1 266 13 is_stmt 1 discriminator 3 view .LVU350
 266:Hardware/OLED/oled.c ****             OLED_GRAM[y + 1][x + i * 8 + j] = F8X16[chr][j + 8];
 1423              		.loc 1 266 36 is_stmt 0 discriminator 3 view .LVU351
 1424 001c 08EB0C01 		add	r1, r8, ip
 266:Hardware/OLED/oled.c ****             OLED_GRAM[y + 1][x + i * 8 + j] = F8X16[chr][j + 8];
 1425              		.loc 1 266 53 discriminator 3 view .LVU352
 1426 0020 1D4B     		ldr	r3, .L109
 1427 0022 03EB001E 		add	lr, r3, r0, lsl #4
 1428 0026 1EF80CB0 		ldrb	fp, [lr, ip]	@ zero_extendqisi2
 266:Hardware/OLED/oled.c ****             OLED_GRAM[y + 1][x + i * 8 + j] = F8X16[chr][j + 8];
 1429              		.loc 1 266 41 discriminator 3 view .LVU353
 1430 002a 1C4B     		ldr	r3, .L109+4
 1431 002c 03EBC412 		add	r2, r3, r4, lsl #7
 1432 0030 02F801B0 		strb	fp, [r2, r1]
 267:Hardware/OLED/oled.c ****         }
 1433              		.loc 1 267 13 is_stmt 1 discriminator 3 view .LVU354
 267:Hardware/OLED/oled.c ****         }
 1434              		.loc 1 267 60 is_stmt 0 discriminator 3 view .LVU355
 1435 0034 0CF1080B 		add	fp, ip, #8
 267:Hardware/OLED/oled.c ****         }
 1436              		.loc 1 267 25 discriminator 3 view .LVU356
 1437 0038 621C     		adds	r2, r4, #1
 267:Hardware/OLED/oled.c ****         }
 1438              		.loc 1 267 57 discriminator 3 view .LVU357
 1439 003a 1EF80BE0 		ldrb	lr, [lr, fp]	@ zero_extendqisi2
 267:Hardware/OLED/oled.c ****         }
 1440              		.loc 1 267 45 discriminator 3 view .LVU358
 1441 003e 03EBC213 		add	r3, r3, r2, lsl #7
 1442 0042 03F801E0 		strb	lr, [r3, r1]
 265:Hardware/OLED/oled.c ****             OLED_GRAM[y][x + i * 8 + j] = F8X16[chr][j];
 1443              		.loc 1 265 28 is_stmt 1 discriminator 3 view .LVU359
 265:Hardware/OLED/oled.c ****             OLED_GRAM[y][x + i * 8 + j] = F8X16[chr][j];
 1444              		.loc 1 265 29 is_stmt 0 discriminator 3 view .LVU360
 1445 0046 0CF1010C 		add	ip, ip, #1
 1446              	.LVL167:
 265:Hardware/OLED/oled.c ****             OLED_GRAM[y][x + i * 8 + j] = F8X16[chr][j];
 1447              		.loc 1 265 29 discriminator 3 view .LVU361
 1448 004a 5FFA8CFC 		uxtb	ip, ip
 1449              	.LVL168:
 1450              	.L103:
 265:Hardware/OLED/oled.c ****             OLED_GRAM[y][x + i * 8 + j] = F8X16[chr][j];
 1451              		.loc 1 265 21 is_stmt 1 discriminator 1 view .LVU362
 265:Hardware/OLED/oled.c ****             OLED_GRAM[y][x + i * 8 + j] = F8X16[chr][j];
 1452              		.loc 1 265 9 is_stmt 0 discriminator 1 view .LVU363
 1453 004e BCF1070F 		cmp	ip, #7
 1454 0052 E3D9     		bls	.L104
 261:Hardware/OLED/oled.c ****         chr = String[i] - ' ';
 1455              		.loc 1 261 26 is_stmt 1 discriminator 2 view .LVU364
 261:Hardware/OLED/oled.c ****         chr = String[i] - ' ';
ARM GAS  /tmp/ccYbGAiO.s 			page 37


 1456              		.loc 1 261 27 is_stmt 0 discriminator 2 view .LVU365
 1457 0054 09F10109 		add	r9, r9, #1
 1458              	.LVL169:
 261:Hardware/OLED/oled.c ****         chr = String[i] - ' ';
 1459              		.loc 1 261 27 discriminator 2 view .LVU366
 1460 0058 5FFA89F9 		uxtb	r9, r9
 1461              	.LVL170:
 1462              	.L101:
 261:Hardware/OLED/oled.c ****         chr = String[i] - ' ';
 1463              		.loc 1 261 17 is_stmt 1 discriminator 1 view .LVU367
 261:Hardware/OLED/oled.c ****         chr = String[i] - ' ';
 1464              		.loc 1 261 5 is_stmt 0 discriminator 1 view .LVU368
 1465 005c D145     		cmp	r9, r10
 1466 005e 0DD2     		bcs	.L107
 262:Hardware/OLED/oled.c ****         if ((x + i * 8) > 120 || y > 6) return;
 1467              		.loc 1 262 9 is_stmt 1 view .LVU369
 262:Hardware/OLED/oled.c ****         if ((x + i * 8) > 120 || y > 6) return;
 1468              		.loc 1 262 21 is_stmt 0 view .LVU370
 1469 0060 15F80900 		ldrb	r0, [r5, r9]	@ zero_extendqisi2
 262:Hardware/OLED/oled.c ****         if ((x + i * 8) > 120 || y > 6) return;
 1470              		.loc 1 262 13 view .LVU371
 1471 0064 2038     		subs	r0, r0, #32
 1472 0066 C0B2     		uxtb	r0, r0
 1473              	.LVL171:
 263:Hardware/OLED/oled.c **** 
 1474              		.loc 1 263 9 is_stmt 1 view .LVU372
 263:Hardware/OLED/oled.c **** 
 1475              		.loc 1 263 16 is_stmt 0 view .LVU373
 1476 0068 06EBC908 		add	r8, r6, r9, lsl #3
 263:Hardware/OLED/oled.c **** 
 1477              		.loc 1 263 12 view .LVU374
 1478 006c B8F1780F 		cmp	r8, #120
 1479 0070 05DC     		bgt	.L100
 263:Hardware/OLED/oled.c **** 
 1480              		.loc 1 263 31 discriminator 2 view .LVU375
 1481 0072 062C     		cmp	r4, #6
 1482 0074 03D8     		bhi	.L100
 265:Hardware/OLED/oled.c ****             OLED_GRAM[y][x + i * 8 + j] = F8X16[chr][j];
 1483              		.loc 1 265 16 view .LVU376
 1484 0076 4FF0000C 		mov	ip, #0
 1485 007a E8E7     		b	.L103
 1486              	.LVL172:
 1487              	.L107:
 270:Hardware/OLED/oled.c **** }
 1488              		.loc 1 270 5 is_stmt 1 view .LVU377
 270:Hardware/OLED/oled.c **** }
 1489              		.loc 1 270 8 is_stmt 0 view .LVU378
 1490 007c 0FB9     		cbnz	r7, .L108
 1491              	.L100:
 271:Hardware/OLED/oled.c **** 
 1492              		.loc 1 271 1 view .LVU379
 1493 007e BDE8F88F 		pop	{r3, r4, r5, r6, r7, r8, r9, r10, fp, pc}
 1494              	.LVL173:
 1495              	.L108:
 270:Hardware/OLED/oled.c **** }
 1496              		.loc 1 270 12 is_stmt 1 discriminator 1 view .LVU380
 1497 0082 4FEACA02 		lsl	r2, r10, #3
ARM GAS  /tmp/ccYbGAiO.s 			page 38


 1498 0086 0223     		movs	r3, #2
 1499 0088 02F0F802 		and	r2, r2, #248
 1500 008c 2146     		mov	r1, r4
 1501 008e 3046     		mov	r0, r6
 1502 0090 FFF7FEFF 		bl	OLED_Refresh_Part
 1503              	.LVL174:
 1504 0094 F3E7     		b	.L100
 1505              	.L110:
 1506 0096 00BF     		.align	2
 1507              	.L109:
 1508 0098 00000000 		.word	.LANCHOR5
 1509 009c 00000000 		.word	.LANCHOR1
 1510              		.cfi_endproc
 1511              	.LFE77:
 1513              		.section	.text.OLED_ShowStringF6X8,"ax",%progbits
 1514              		.align	1
 1515              		.global	OLED_ShowStringF6X8
 1516              		.syntax unified
 1517              		.thumb
 1518              		.thumb_func
 1519              		.fpu softvfp
 1521              	OLED_ShowStringF6X8:
 1522              	.LVL175:
 1523              	.LFB78:
 274:Hardware/OLED/oled.c ****     uint8_t i, j, chr;
 1524              		.loc 1 274 73 view -0
 1525              		.cfi_startproc
 1526              		@ args = 0, pretend = 0, frame = 0
 1527              		@ frame_needed = 0, uses_anonymous_args = 0
 274:Hardware/OLED/oled.c ****     uint8_t i, j, chr;
 1528              		.loc 1 274 73 is_stmt 0 view .LVU382
 1529 0000 2DE9F047 		push	{r4, r5, r6, r7, r8, r9, r10, lr}
 1530              	.LCFI16:
 1531              		.cfi_def_cfa_offset 32
 1532              		.cfi_offset 4, -32
 1533              		.cfi_offset 5, -28
 1534              		.cfi_offset 6, -24
 1535              		.cfi_offset 7, -20
 1536              		.cfi_offset 8, -16
 1537              		.cfi_offset 9, -12
 1538              		.cfi_offset 10, -8
 1539              		.cfi_offset 14, -4
 1540 0004 0646     		mov	r6, r0
 1541 0006 0C46     		mov	r4, r1
 1542 0008 1546     		mov	r5, r2
 1543 000a 1F46     		mov	r7, r3
 275:Hardware/OLED/oled.c ****     uint8_t len = strlen(String);
 1544              		.loc 1 275 5 is_stmt 1 view .LVU383
 276:Hardware/OLED/oled.c **** 
 1545              		.loc 1 276 5 view .LVU384
 276:Hardware/OLED/oled.c **** 
 1546              		.loc 1 276 19 is_stmt 0 view .LVU385
 1547 000c 1046     		mov	r0, r2
 1548              	.LVL176:
 276:Hardware/OLED/oled.c **** 
 1549              		.loc 1 276 19 view .LVU386
 1550 000e FFF7FEFF 		bl	strlen
ARM GAS  /tmp/ccYbGAiO.s 			page 39


 1551              	.LVL177:
 276:Hardware/OLED/oled.c **** 
 1552              		.loc 1 276 13 view .LVU387
 1553 0012 5FFA80F9 		uxtb	r9, r0
 1554              	.LVL178:
 278:Hardware/OLED/oled.c ****         chr = String[i] - ' ';
 1555              		.loc 1 278 5 is_stmt 1 view .LVU388
 278:Hardware/OLED/oled.c ****         chr = String[i] - ' ';
 1556              		.loc 1 278 12 is_stmt 0 view .LVU389
 1557 0016 4FF00008 		mov	r8, #0
 278:Hardware/OLED/oled.c ****         chr = String[i] - ' ';
 1558              		.loc 1 278 5 view .LVU390
 1559 001a 18E0     		b	.L112
 1560              	.LVL179:
 1561              	.L115:
 284:Hardware/OLED/oled.c ****         }
 1562              		.loc 1 284 13 is_stmt 1 discriminator 3 view .LVU391
 284:Hardware/OLED/oled.c ****         }
 1563              		.loc 1 284 36 is_stmt 0 discriminator 3 view .LVU392
 1564 001c 00EB0C01 		add	r1, r0, ip
 284:Hardware/OLED/oled.c ****         }
 1565              		.loc 1 284 52 discriminator 3 view .LVU393
 1566 0020 02EB420E 		add	lr, r2, r2, lsl #1
 1567 0024 1A4B     		ldr	r3, .L120
 1568 0026 03EB4E0E 		add	lr, r3, lr, lsl #1
 1569 002a 1EF80CA0 		ldrb	r10, [lr, ip]	@ zero_extendqisi2
 284:Hardware/OLED/oled.c ****         }
 1570              		.loc 1 284 41 discriminator 3 view .LVU394
 1571 002e 194B     		ldr	r3, .L120+4
 1572 0030 03EBC41E 		add	lr, r3, r4, lsl #7
 1573 0034 0EF801A0 		strb	r10, [lr, r1]
 283:Hardware/OLED/oled.c ****             OLED_GRAM[y][x + i * 6 + j] = F6X8[chr][j];
 1574              		.loc 1 283 28 is_stmt 1 discriminator 3 view .LVU395
 283:Hardware/OLED/oled.c ****             OLED_GRAM[y][x + i * 6 + j] = F6X8[chr][j];
 1575              		.loc 1 283 29 is_stmt 0 discriminator 3 view .LVU396
 1576 0038 0CF1010C 		add	ip, ip, #1
 1577              	.LVL180:
 283:Hardware/OLED/oled.c ****             OLED_GRAM[y][x + i * 6 + j] = F6X8[chr][j];
 1578              		.loc 1 283 29 discriminator 3 view .LVU397
 1579 003c 5FFA8CFC 		uxtb	ip, ip
 1580              	.LVL181:
 1581              	.L114:
 283:Hardware/OLED/oled.c ****             OLED_GRAM[y][x + i * 6 + j] = F6X8[chr][j];
 1582              		.loc 1 283 21 is_stmt 1 discriminator 1 view .LVU398
 283:Hardware/OLED/oled.c ****             OLED_GRAM[y][x + i * 6 + j] = F6X8[chr][j];
 1583              		.loc 1 283 9 is_stmt 0 discriminator 1 view .LVU399
 1584 0040 BCF1050F 		cmp	ip, #5
 1585 0044 EAD9     		bls	.L115
 278:Hardware/OLED/oled.c ****         chr = String[i] - ' ';
 1586              		.loc 1 278 26 is_stmt 1 discriminator 2 view .LVU400
 278:Hardware/OLED/oled.c ****         chr = String[i] - ' ';
 1587              		.loc 1 278 27 is_stmt 0 discriminator 2 view .LVU401
 1588 0046 08F10108 		add	r8, r8, #1
 1589              	.LVL182:
 278:Hardware/OLED/oled.c ****         chr = String[i] - ' ';
 1590              		.loc 1 278 27 discriminator 2 view .LVU402
 1591 004a 5FFA88F8 		uxtb	r8, r8
ARM GAS  /tmp/ccYbGAiO.s 			page 40


 1592              	.LVL183:
 1593              	.L112:
 278:Hardware/OLED/oled.c ****         chr = String[i] - ' ';
 1594              		.loc 1 278 17 is_stmt 1 discriminator 1 view .LVU403
 278:Hardware/OLED/oled.c ****         chr = String[i] - ' ';
 1595              		.loc 1 278 5 is_stmt 0 discriminator 1 view .LVU404
 1596 004e C845     		cmp	r8, r9
 1597 0050 0ED2     		bcs	.L118
 279:Hardware/OLED/oled.c ****         // иҫ№з•ҢдҝқжҠӨпјҡx + еҪ“еүҚеӯ—з¬ҰеҒҸз§» > 127
 1598              		.loc 1 279 9 is_stmt 1 view .LVU405
 279:Hardware/OLED/oled.c ****         // иҫ№з•ҢдҝқжҠӨпјҡx + еҪ“еүҚеӯ—з¬ҰеҒҸз§» > 127
 1599              		.loc 1 279 21 is_stmt 0 view .LVU406
 1600 0052 15F80820 		ldrb	r2, [r5, r8]	@ zero_extendqisi2
 279:Hardware/OLED/oled.c ****         // иҫ№з•ҢдҝқжҠӨпјҡx + еҪ“еүҚеӯ—з¬ҰеҒҸз§» > 127
 1601              		.loc 1 279 13 view .LVU407
 1602 0056 203A     		subs	r2, r2, #32
 1603 0058 D2B2     		uxtb	r2, r2
 1604              	.LVL184:
 281:Hardware/OLED/oled.c **** 
 1605              		.loc 1 281 9 is_stmt 1 view .LVU408
 281:Hardware/OLED/oled.c **** 
 1606              		.loc 1 281 20 is_stmt 0 view .LVU409
 1607 005a 08EB4800 		add	r0, r8, r8, lsl #1
 281:Hardware/OLED/oled.c **** 
 1608              		.loc 1 281 16 view .LVU410
 1609 005e 06EB4000 		add	r0, r6, r0, lsl #1
 281:Hardware/OLED/oled.c **** 
 1610              		.loc 1 281 12 view .LVU411
 1611 0062 7A28     		cmp	r0, #122
 1612 0064 05DC     		bgt	.L111
 281:Hardware/OLED/oled.c **** 
 1613              		.loc 1 281 31 discriminator 2 view .LVU412
 1614 0066 072C     		cmp	r4, #7
 1615 0068 03D8     		bhi	.L111
 283:Hardware/OLED/oled.c ****             OLED_GRAM[y][x + i * 6 + j] = F6X8[chr][j];
 1616              		.loc 1 283 16 view .LVU413
 1617 006a 4FF0000C 		mov	ip, #0
 1618 006e E7E7     		b	.L114
 1619              	.LVL185:
 1620              	.L118:
 287:Hardware/OLED/oled.c **** }
 1621              		.loc 1 287 5 is_stmt 1 view .LVU414
 287:Hardware/OLED/oled.c **** }
 1622              		.loc 1 287 8 is_stmt 0 view .LVU415
 1623 0070 0FB9     		cbnz	r7, .L119
 1624              	.LVL186:
 1625              	.L111:
 288:Hardware/OLED/oled.c **** 
 1626              		.loc 1 288 1 view .LVU416
 1627 0072 BDE8F087 		pop	{r4, r5, r6, r7, r8, r9, r10, pc}
 1628              	.LVL187:
 1629              	.L119:
 287:Hardware/OLED/oled.c **** }
 1630              		.loc 1 287 12 is_stmt 1 discriminator 1 view .LVU417
 1631 0076 09EB4909 		add	r9, r9, r9, lsl #1
 1632              	.LVL188:
 287:Hardware/OLED/oled.c **** }
ARM GAS  /tmp/ccYbGAiO.s 			page 41


 1633              		.loc 1 287 12 is_stmt 0 discriminator 1 view .LVU418
 1634 007a 4FEA4902 		lsl	r2, r9, #1
 1635 007e 0123     		movs	r3, #1
 1636 0080 02F0FE02 		and	r2, r2, #254
 1637 0084 2146     		mov	r1, r4
 1638 0086 3046     		mov	r0, r6
 1639 0088 FFF7FEFF 		bl	OLED_Refresh_Part
 1640              	.LVL189:
 1641 008c F1E7     		b	.L111
 1642              	.L121:
 1643 008e 00BF     		.align	2
 1644              	.L120:
 1645 0090 00000000 		.word	.LANCHOR6
 1646 0094 00000000 		.word	.LANCHOR1
 1647              		.cfi_endproc
 1648              	.LFE78:
 1650              		.section	.text.OLED_ShowNumF6X16,"ax",%progbits
 1651              		.align	1
 1652              		.global	OLED_ShowNumF6X16
 1653              		.syntax unified
 1654              		.thumb
 1655              		.thumb_func
 1656              		.fpu softvfp
 1658              	OLED_ShowNumF6X16:
 1659              	.LVL190:
 1660              	.LFB80:
 314:Hardware/OLED/oled.c **** 
 315:Hardware/OLED/oled.c **** // жҳҫзӨәF6x16 ж— з¬ҰеҸ·ж•°еӯ—
 316:Hardware/OLED/oled.c **** void OLED_ShowNumF6X16(uint8_t x, uint8_t y, uint32_t Num, uint8_t Length, uint8_t m) {
 1661              		.loc 1 316 87 is_stmt 1 view -0
 1662              		.cfi_startproc
 1663              		@ args = 4, pretend = 0, frame = 0
 1664              		@ frame_needed = 0, uses_anonymous_args = 0
 1665              		.loc 1 316 87 is_stmt 0 view .LVU420
 1666 0000 F0B5     		push	{r4, r5, r6, r7, lr}
 1667              	.LCFI17:
 1668              		.cfi_def_cfa_offset 20
 1669              		.cfi_offset 4, -20
 1670              		.cfi_offset 5, -16
 1671              		.cfi_offset 6, -12
 1672              		.cfi_offset 7, -8
 1673              		.cfi_offset 14, -4
 1674 0002 83B0     		sub	sp, sp, #12
 1675              	.LCFI18:
 1676              		.cfi_def_cfa_offset 32
 1677 0004 0546     		mov	r5, r0
 1678 0006 0E46     		mov	r6, r1
 1679 0008 1C46     		mov	r4, r3
 1680 000a 9DF82070 		ldrb	r7, [sp, #32]	@ zero_extendqisi2
 317:Hardware/OLED/oled.c ****     Show_Num_Core(x, y, Num, Length, 1);
 1681              		.loc 1 317 5 is_stmt 1 view .LVU421
 1682 000e 4FF0010C 		mov	ip, #1
 1683 0012 CDF800C0 		str	ip, [sp]
 1684 0016 FFF7FEFF 		bl	Show_Num_Core
 1685              	.LVL191:
 318:Hardware/OLED/oled.c ****     if (m) OLED_Refresh_Part(x, y, 6 * Length, 2); // 16еғҸзҙ й«ҳ = 2йЎө
 1686              		.loc 1 318 5 view .LVU422
ARM GAS  /tmp/ccYbGAiO.s 			page 42


 1687              		.loc 1 318 8 is_stmt 0 view .LVU423
 1688 001a 0FB9     		cbnz	r7, .L125
 1689              	.L122:
 319:Hardware/OLED/oled.c **** }
 1690              		.loc 1 319 1 view .LVU424
 1691 001c 03B0     		add	sp, sp, #12
 1692              	.LCFI19:
 1693              		.cfi_remember_state
 1694              		.cfi_def_cfa_offset 20
 1695              		@ sp needed
 1696 001e F0BD     		pop	{r4, r5, r6, r7, pc}
 1697              	.LVL192:
 1698              	.L125:
 1699              	.LCFI20:
 1700              		.cfi_restore_state
 318:Hardware/OLED/oled.c ****     if (m) OLED_Refresh_Part(x, y, 6 * Length, 2); // 16еғҸзҙ й«ҳ = 2йЎө
 1701              		.loc 1 318 12 is_stmt 1 discriminator 1 view .LVU425
 1702 0020 04EB4403 		add	r3, r4, r4, lsl #1
 1703 0024 5A00     		lsls	r2, r3, #1
 1704 0026 0223     		movs	r3, #2
 1705 0028 02F0FE02 		and	r2, r2, #254
 1706 002c 3146     		mov	r1, r6
 1707 002e 2846     		mov	r0, r5
 1708 0030 FFF7FEFF 		bl	OLED_Refresh_Part
 1709              	.LVL193:
 1710              		.loc 1 319 1 is_stmt 0 discriminator 1 view .LVU426
 1711 0034 F2E7     		b	.L122
 1712              		.cfi_endproc
 1713              	.LFE80:
 1715              		.section	.text.OLED_ShowNumF6X8,"ax",%progbits
 1716              		.align	1
 1717              		.global	OLED_ShowNumF6X8
 1718              		.syntax unified
 1719              		.thumb
 1720              		.thumb_func
 1721              		.fpu softvfp
 1723              	OLED_ShowNumF6X8:
 1724              	.LVL194:
 1725              	.LFB81:
 320:Hardware/OLED/oled.c **** 
 321:Hardware/OLED/oled.c **** // жҳҫзӨәF5x8 ж— з¬ҰеҸ·ж•°еӯ—
 322:Hardware/OLED/oled.c **** void OLED_ShowNumF6X8(uint8_t x, uint8_t y, uint32_t Num, uint8_t Length, uint8_t m) {
 1726              		.loc 1 322 86 is_stmt 1 view -0
 1727              		.cfi_startproc
 1728              		@ args = 4, pretend = 0, frame = 0
 1729              		@ frame_needed = 0, uses_anonymous_args = 0
 1730              		.loc 1 322 86 is_stmt 0 view .LVU428
 1731 0000 F0B5     		push	{r4, r5, r6, r7, lr}
 1732              	.LCFI21:
 1733              		.cfi_def_cfa_offset 20
 1734              		.cfi_offset 4, -20
 1735              		.cfi_offset 5, -16
 1736              		.cfi_offset 6, -12
 1737              		.cfi_offset 7, -8
 1738              		.cfi_offset 14, -4
 1739 0002 83B0     		sub	sp, sp, #12
 1740              	.LCFI22:
ARM GAS  /tmp/ccYbGAiO.s 			page 43


 1741              		.cfi_def_cfa_offset 32
 1742 0004 0546     		mov	r5, r0
 1743 0006 0E46     		mov	r6, r1
 1744 0008 1C46     		mov	r4, r3
 1745 000a 9DF82070 		ldrb	r7, [sp, #32]	@ zero_extendqisi2
 323:Hardware/OLED/oled.c ****     Show_Num_Core(x, y, Num, Length, 0);
 1746              		.loc 1 323 5 is_stmt 1 view .LVU429
 1747 000e 4FF0000C 		mov	ip, #0
 1748 0012 CDF800C0 		str	ip, [sp]
 1749 0016 FFF7FEFF 		bl	Show_Num_Core
 1750              	.LVL195:
 324:Hardware/OLED/oled.c ****     if (m) OLED_Refresh_Part(x, y, 6 * Length, 1); // 8еғҸзҙ й«ҳ = 1йЎө
 1751              		.loc 1 324 5 view .LVU430
 1752              		.loc 1 324 8 is_stmt 0 view .LVU431
 1753 001a 0FB9     		cbnz	r7, .L129
 1754              	.L126:
 325:Hardware/OLED/oled.c **** }
 1755              		.loc 1 325 1 view .LVU432
 1756 001c 03B0     		add	sp, sp, #12
 1757              	.LCFI23:
 1758              		.cfi_remember_state
 1759              		.cfi_def_cfa_offset 20
 1760              		@ sp needed
 1761 001e F0BD     		pop	{r4, r5, r6, r7, pc}
 1762              	.LVL196:
 1763              	.L129:
 1764              	.LCFI24:
 1765              		.cfi_restore_state
 324:Hardware/OLED/oled.c ****     if (m) OLED_Refresh_Part(x, y, 6 * Length, 1); // 8еғҸзҙ й«ҳ = 1йЎө
 1766              		.loc 1 324 12 is_stmt 1 discriminator 1 view .LVU433
 1767 0020 04EB4403 		add	r3, r4, r4, lsl #1
 1768 0024 5A00     		lsls	r2, r3, #1
 1769 0026 0123     		movs	r3, #1
 1770 0028 02F0FE02 		and	r2, r2, #254
 1771 002c 3146     		mov	r1, r6
 1772 002e 2846     		mov	r0, r5
 1773 0030 FFF7FEFF 		bl	OLED_Refresh_Part
 1774              	.LVL197:
 1775              		.loc 1 325 1 is_stmt 0 discriminator 1 view .LVU434
 1776 0034 F2E7     		b	.L126
 1777              		.cfi_endproc
 1778              	.LFE81:
 1780              		.section	.text.OLED_ShowSignedNumF6X16,"ax",%progbits
 1781              		.align	1
 1782              		.global	OLED_ShowSignedNumF6X16
 1783              		.syntax unified
 1784              		.thumb
 1785              		.thumb_func
 1786              		.fpu softvfp
 1788              	OLED_ShowSignedNumF6X16:
 1789              	.LVL198:
 1790              	.LFB82:
 326:Hardware/OLED/oled.c **** 
 327:Hardware/OLED/oled.c **** // жҳҫзӨә F6x16 жңүз¬ҰеҸ·ж•°еӯ—
 328:Hardware/OLED/oled.c **** void OLED_ShowSignedNumF6X16(uint8_t x, uint8_t y, int32_t Num, uint8_t Length, uint8_t m) {
 1791              		.loc 1 328 92 is_stmt 1 view -0
 1792              		.cfi_startproc
ARM GAS  /tmp/ccYbGAiO.s 			page 44


 1793              		@ args = 4, pretend = 0, frame = 0
 1794              		@ frame_needed = 0, uses_anonymous_args = 0
 1795              		.loc 1 328 92 is_stmt 0 view .LVU436
 1796 0000 2DE9F047 		push	{r4, r5, r6, r7, r8, r9, r10, lr}
 1797              	.LCFI25:
 1798              		.cfi_def_cfa_offset 32
 1799              		.cfi_offset 4, -32
 1800              		.cfi_offset 5, -28
 1801              		.cfi_offset 6, -24
 1802              		.cfi_offset 7, -20
 1803              		.cfi_offset 8, -16
 1804              		.cfi_offset 9, -12
 1805              		.cfi_offset 10, -8
 1806              		.cfi_offset 14, -4
 1807 0004 82B0     		sub	sp, sp, #8
 1808              	.LCFI26:
 1809              		.cfi_def_cfa_offset 40
 1810 0006 0746     		mov	r7, r0
 1811 0008 0E46     		mov	r6, r1
 1812 000a 9846     		mov	r8, r3
 1813 000c 9DF82890 		ldrb	r9, [sp, #40]	@ zero_extendqisi2
 329:Hardware/OLED/oled.c ****     uint8_t sym, j;
 1814              		.loc 1 329 5 is_stmt 1 view .LVU437
 330:Hardware/OLED/oled.c ****     uint32_t UnsignedNum;
 1815              		.loc 1 330 5 view .LVU438
 331:Hardware/OLED/oled.c **** 
 332:Hardware/OLED/oled.c ****     // з¬ҰеҸ·еӨ„зҗҶ
 333:Hardware/OLED/oled.c ****     if (Num >= 0) { sym = 11; UnsignedNum = Num; }
 1816              		.loc 1 333 5 view .LVU439
 1817              		.loc 1 333 8 is_stmt 0 view .LVU440
 1818 0010 002A     		cmp	r2, #0
 1819              		.loc 1 333 8 view .LVU441
 1820 0012 03DB     		blt	.L131
 1821              		.loc 1 333 21 is_stmt 1 discriminator 1 view .LVU442
 1822              	.LVL199:
 1823              		.loc 1 333 31 discriminator 1 view .LVU443
 1824              		.loc 1 333 25 is_stmt 0 discriminator 1 view .LVU444
 1825 0014 0B23     		movs	r3, #11
 1826              	.LVL200:
 1827              	.L132:
 334:Hardware/OLED/oled.c ****     else          { sym = 12; UnsignedNum = -Num; } // иҙҹж•°иҪ¬жӯЈ
 335:Hardware/OLED/oled.c **** 
 336:Hardware/OLED/oled.c ****     // з”»з¬ҰеҸ·
 337:Hardware/OLED/oled.c ****     for (j = 0; j < 6; j++) {
 1828              		.loc 1 337 5 is_stmt 1 view .LVU445
 1829              		.loc 1 337 12 is_stmt 0 view .LVU446
 1830 0016 4FF0000C 		mov	ip, #0
 1831              		.loc 1 337 5 view .LVU447
 1832 001a 20E0     		b	.L133
 1833              	.LVL201:
 1834              	.L131:
 334:Hardware/OLED/oled.c ****     else          { sym = 12; UnsignedNum = -Num; } // иҙҹж•°иҪ¬жӯЈ
 1835              		.loc 1 334 21 is_stmt 1 view .LVU448
 334:Hardware/OLED/oled.c ****     else          { sym = 12; UnsignedNum = -Num; } // иҙҹж•°иҪ¬жӯЈ
 1836              		.loc 1 334 31 view .LVU449
 334:Hardware/OLED/oled.c ****     else          { sym = 12; UnsignedNum = -Num; } // иҙҹж•°иҪ¬жӯЈ
 1837              		.loc 1 334 45 is_stmt 0 view .LVU450
ARM GAS  /tmp/ccYbGAiO.s 			page 45


 1838 001c 5242     		rsbs	r2, r2, #0
 1839              	.LVL202:
 334:Hardware/OLED/oled.c ****     else          { sym = 12; UnsignedNum = -Num; } // иҙҹж•°иҪ¬жӯЈ
 1840              		.loc 1 334 25 view .LVU451
 1841 001e 0C23     		movs	r3, #12
 1842              	.LVL203:
 334:Hardware/OLED/oled.c ****     else          { sym = 12; UnsignedNum = -Num; } // иҙҹж•°иҪ¬жӯЈ
 1843              		.loc 1 334 25 view .LVU452
 1844 0020 F9E7     		b	.L132
 1845              	.LVL204:
 1846              	.L134:
 338:Hardware/OLED/oled.c ****         OLED_GRAM[y][x + j] = Font_Num_6X16[sym][j];
 1847              		.loc 1 338 9 is_stmt 1 discriminator 3 view .LVU453
 1848              		.loc 1 338 24 is_stmt 0 discriminator 3 view .LVU454
 1849 0022 07EB0C00 		add	r0, r7, ip
 1850              		.loc 1 338 49 discriminator 3 view .LVU455
 1851 0026 1D4D     		ldr	r5, .L138
 1852 0028 03EB4301 		add	r1, r3, r3, lsl #1
 1853 002c 05EB8101 		add	r1, r5, r1, lsl #2
 1854 0030 11F80CE0 		ldrb	lr, [r1, ip]	@ zero_extendqisi2
 1855              		.loc 1 338 29 discriminator 3 view .LVU456
 1856 0034 1A4C     		ldr	r4, .L138+4
 1857 0036 04EBC611 		add	r1, r4, r6, lsl #7
 1858 003a 01F800E0 		strb	lr, [r1, r0]
 339:Hardware/OLED/oled.c ****         OLED_GRAM[y + 1][x + j] = Font_Num_6X16[sym][j + 6];
 1859              		.loc 1 339 9 is_stmt 1 discriminator 3 view .LVU457
 1860              		.loc 1 339 56 is_stmt 0 discriminator 3 view .LVU458
 1861 003e 0CF1060E 		add	lr, ip, #6
 1862              		.loc 1 339 21 discriminator 3 view .LVU459
 1863 0042 711C     		adds	r1, r6, #1
 1864              		.loc 1 339 53 discriminator 3 view .LVU460
 1865 0044 03EB430A 		add	r10, r3, r3, lsl #1
 1866 0048 05EB8A05 		add	r5, r5, r10, lsl #2
 1867 004c 15F80E50 		ldrb	r5, [r5, lr]	@ zero_extendqisi2
 1868              		.loc 1 339 33 discriminator 3 view .LVU461
 1869 0050 04EBC114 		add	r4, r4, r1, lsl #7
 1870 0054 2554     		strb	r5, [r4, r0]
 337:Hardware/OLED/oled.c ****         OLED_GRAM[y][x + j] = Font_Num_6X16[sym][j];
 1871              		.loc 1 337 24 is_stmt 1 discriminator 3 view .LVU462
 337:Hardware/OLED/oled.c ****         OLED_GRAM[y][x + j] = Font_Num_6X16[sym][j];
 1872              		.loc 1 337 25 is_stmt 0 discriminator 3 view .LVU463
 1873 0056 0CF1010C 		add	ip, ip, #1
 1874              	.LVL205:
 337:Hardware/OLED/oled.c ****         OLED_GRAM[y][x + j] = Font_Num_6X16[sym][j];
 1875              		.loc 1 337 25 discriminator 3 view .LVU464
 1876 005a 5FFA8CFC 		uxtb	ip, ip
 1877              	.LVL206:
 1878              	.L133:
 337:Hardware/OLED/oled.c ****         OLED_GRAM[y][x + j] = Font_Num_6X16[sym][j];
 1879              		.loc 1 337 17 is_stmt 1 discriminator 1 view .LVU465
 337:Hardware/OLED/oled.c ****         OLED_GRAM[y][x + j] = Font_Num_6X16[sym][j];
 1880              		.loc 1 337 5 is_stmt 0 discriminator 1 view .LVU466
 1881 005e BCF1050F 		cmp	ip, #5
 1882 0062 DED9     		bls	.L134
 340:Hardware/OLED/oled.c ****     }
 341:Hardware/OLED/oled.c ****     // з”»ж•°еӯ— (еҒҸз§»6дёӘеғҸзҙ )
 342:Hardware/OLED/oled.c ****     Show_Num_Core(x + 6, y, UnsignedNum, Length, 1);
ARM GAS  /tmp/ccYbGAiO.s 			page 46


 1883              		.loc 1 342 5 is_stmt 1 view .LVU467
 1884 0064 B81D     		adds	r0, r7, #6
 1885 0066 0123     		movs	r3, #1
 1886              	.LVL207:
 1887              		.loc 1 342 5 is_stmt 0 view .LVU468
 1888 0068 0093     		str	r3, [sp]
 1889 006a 4346     		mov	r3, r8
 1890 006c 3146     		mov	r1, r6
 1891 006e C0B2     		uxtb	r0, r0
 1892 0070 FFF7FEFF 		bl	Show_Num_Core
 1893              	.LVL208:
 343:Hardware/OLED/oled.c ****     
 344:Hardware/OLED/oled.c ****     if (m) OLED_Refresh_Part(x, y, 6 * (Length + 1), 2);
 1894              		.loc 1 344 5 is_stmt 1 view .LVU469
 1895              		.loc 1 344 8 is_stmt 0 view .LVU470
 1896 0074 B9F1000F 		cmp	r9, #0
 1897 0078 02D1     		bne	.L137
 1898              	.L130:
 345:Hardware/OLED/oled.c **** }
 1899              		.loc 1 345 1 view .LVU471
 1900 007a 02B0     		add	sp, sp, #8
 1901              	.LCFI27:
 1902              		.cfi_remember_state
 1903              		.cfi_def_cfa_offset 32
 1904              		@ sp needed
 1905 007c BDE8F087 		pop	{r4, r5, r6, r7, r8, r9, r10, pc}
 1906              	.LVL209:
 1907              	.L137:
 1908              	.LCFI28:
 1909              		.cfi_restore_state
 344:Hardware/OLED/oled.c **** }
 1910              		.loc 1 344 12 is_stmt 1 discriminator 1 view .LVU472
 1911 0080 08F10108 		add	r8, r8, #1
 1912 0084 08EB4808 		add	r8, r8, r8, lsl #1
 1913 0088 4FEA4802 		lsl	r2, r8, #1
 1914 008c 0223     		movs	r3, #2
 1915 008e 02F0FE02 		and	r2, r2, #254
 1916 0092 3146     		mov	r1, r6
 1917 0094 3846     		mov	r0, r7
 1918 0096 FFF7FEFF 		bl	OLED_Refresh_Part
 1919              	.LVL210:
 1920              		.loc 1 345 1 is_stmt 0 discriminator 1 view .LVU473
 1921 009a EEE7     		b	.L130
 1922              	.L139:
 1923              		.align	2
 1924              	.L138:
 1925 009c 00000000 		.word	.LANCHOR0
 1926 00a0 00000000 		.word	.LANCHOR1
 1927              		.cfi_endproc
 1928              	.LFE82:
 1930              		.section	.text.OLED_ShowSignedNumF6X8,"ax",%progbits
 1931              		.align	1
 1932              		.global	OLED_ShowSignedNumF6X8
 1933              		.syntax unified
 1934              		.thumb
 1935              		.thumb_func
 1936              		.fpu softvfp
ARM GAS  /tmp/ccYbGAiO.s 			page 47


 1938              	OLED_ShowSignedNumF6X8:
 1939              	.LVL211:
 1940              	.LFB83:
 346:Hardware/OLED/oled.c **** 
 347:Hardware/OLED/oled.c **** // жҳҫзӨә F5x8 жңүз¬ҰеҸ·ж•°еӯ—
 348:Hardware/OLED/oled.c **** void OLED_ShowSignedNumF6X8(uint8_t x, uint8_t y, int32_t Num, uint8_t Length, uint8_t m) {
 1941              		.loc 1 348 91 is_stmt 1 view -0
 1942              		.cfi_startproc
 1943              		@ args = 4, pretend = 0, frame = 0
 1944              		@ frame_needed = 0, uses_anonymous_args = 0
 1945              		.loc 1 348 91 is_stmt 0 view .LVU475
 1946 0000 2DE9F041 		push	{r4, r5, r6, r7, r8, lr}
 1947              	.LCFI29:
 1948              		.cfi_def_cfa_offset 24
 1949              		.cfi_offset 4, -24
 1950              		.cfi_offset 5, -20
 1951              		.cfi_offset 6, -16
 1952              		.cfi_offset 7, -12
 1953              		.cfi_offset 8, -8
 1954              		.cfi_offset 14, -4
 1955 0004 82B0     		sub	sp, sp, #8
 1956              	.LCFI30:
 1957              		.cfi_def_cfa_offset 32
 1958 0006 0546     		mov	r5, r0
 1959 0008 0E46     		mov	r6, r1
 1960 000a 1F46     		mov	r7, r3
 1961 000c 9DF82080 		ldrb	r8, [sp, #32]	@ zero_extendqisi2
 349:Hardware/OLED/oled.c ****     uint8_t sym, j;
 1962              		.loc 1 349 5 is_stmt 1 view .LVU476
 350:Hardware/OLED/oled.c ****     uint32_t UnsignedNum;
 1963              		.loc 1 350 5 view .LVU477
 351:Hardware/OLED/oled.c **** 
 352:Hardware/OLED/oled.c ****     // 1. з¬ҰеҸ·еӨ„зҗҶ
 353:Hardware/OLED/oled.c ****     if (Num >= 0) { sym = 11; UnsignedNum = Num; }
 1964              		.loc 1 353 5 view .LVU478
 1965              		.loc 1 353 8 is_stmt 0 view .LVU479
 1966 0010 002A     		cmp	r2, #0
 1967              		.loc 1 353 8 view .LVU480
 1968 0012 03DB     		blt	.L141
 1969              		.loc 1 353 21 is_stmt 1 discriminator 1 view .LVU481
 1970              	.LVL212:
 1971              		.loc 1 353 31 discriminator 1 view .LVU482
 1972              		.loc 1 353 25 is_stmt 0 discriminator 1 view .LVU483
 1973 0014 0B21     		movs	r1, #11
 1974              	.LVL213:
 1975              	.L142:
 354:Hardware/OLED/oled.c ****     else          { sym = 12; UnsignedNum = -Num; }
 355:Hardware/OLED/oled.c **** 
 356:Hardware/OLED/oled.c ****     // 2. з”»з¬ҰеҸ· (F5x8 еӯ—е®Ҫ5 + й—ҙйҡ”1)
 357:Hardware/OLED/oled.c ****     for (j = 0; j < 5; j++) OLED_GRAM[y][x + j] = Font_Num_5X8[sym][j];
 1976              		.loc 1 357 5 is_stmt 1 view .LVU484
 1977              		.loc 1 357 12 is_stmt 0 view .LVU485
 1978 0016 4FF0000C 		mov	ip, #0
 1979              		.loc 1 357 5 view .LVU486
 1980 001a 13E0     		b	.L143
 1981              	.LVL214:
 1982              	.L141:
ARM GAS  /tmp/ccYbGAiO.s 			page 48


 354:Hardware/OLED/oled.c ****     else          { sym = 12; UnsignedNum = -Num; }
 1983              		.loc 1 354 21 is_stmt 1 view .LVU487
 354:Hardware/OLED/oled.c ****     else          { sym = 12; UnsignedNum = -Num; }
 1984              		.loc 1 354 31 view .LVU488
 354:Hardware/OLED/oled.c ****     else          { sym = 12; UnsignedNum = -Num; }
 1985              		.loc 1 354 45 is_stmt 0 view .LVU489
 1986 001c 5242     		rsbs	r2, r2, #0
 1987              	.LVL215:
 354:Hardware/OLED/oled.c ****     else          { sym = 12; UnsignedNum = -Num; }
 1988              		.loc 1 354 25 view .LVU490
 1989 001e 0C21     		movs	r1, #12
 1990              	.LVL216:
 354:Hardware/OLED/oled.c ****     else          { sym = 12; UnsignedNum = -Num; }
 1991              		.loc 1 354 25 view .LVU491
 1992 0020 F9E7     		b	.L142
 1993              	.LVL217:
 1994              	.L144:
 1995              		.loc 1 357 29 is_stmt 1 discriminator 3 view .LVU492
 1996              		.loc 1 357 44 is_stmt 0 discriminator 3 view .LVU493
 1997 0022 05EB0C00 		add	r0, r5, ip
 1998              		.loc 1 357 68 discriminator 3 view .LVU494
 1999 0026 01EB8104 		add	r4, r1, r1, lsl #2
 2000 002a 174B     		ldr	r3, .L148
 2001 002c 2344     		add	r3, r3, r4
 2002 002e 13F80C30 		ldrb	r3, [r3, ip]	@ zero_extendqisi2
 2003              		.loc 1 357 49 discriminator 3 view .LVU495
 2004 0032 164C     		ldr	r4, .L148+4
 2005 0034 04EBC61E 		add	lr, r4, r6, lsl #7
 2006 0038 0EF80030 		strb	r3, [lr, r0]
 2007              		.loc 1 357 24 is_stmt 1 discriminator 3 view .LVU496
 2008              		.loc 1 357 25 is_stmt 0 discriminator 3 view .LVU497
 2009 003c 0CF1010C 		add	ip, ip, #1
 2010              	.LVL218:
 2011              		.loc 1 357 25 discriminator 3 view .LVU498
 2012 0040 5FFA8CFC 		uxtb	ip, ip
 2013              	.LVL219:
 2014              	.L143:
 2015              		.loc 1 357 17 is_stmt 1 discriminator 1 view .LVU499
 2016              		.loc 1 357 5 is_stmt 0 discriminator 1 view .LVU500
 2017 0044 BCF1040F 		cmp	ip, #4
 2018 0048 EBD9     		bls	.L144
 358:Hardware/OLED/oled.c ****     OLED_GRAM[y][x + 5] = 0; // иЎҘй—ҙйҡ”
 2019              		.loc 1 358 5 is_stmt 1 view .LVU501
 2020              		.loc 1 358 20 is_stmt 0 view .LVU502
 2021 004a 6B1D     		adds	r3, r5, #5
 2022              		.loc 1 358 25 view .LVU503
 2023 004c 0F49     		ldr	r1, .L148+4
 2024              	.LVL220:
 2025              		.loc 1 358 25 view .LVU504
 2026 004e 01EBC611 		add	r1, r1, r6, lsl #7
 2027 0052 0024     		movs	r4, #0
 2028 0054 CC54     		strb	r4, [r1, r3]
 359:Hardware/OLED/oled.c **** 
 360:Hardware/OLED/oled.c ****     // 3. з”»ж•°еӯ— (еҲ©з”Ёж ёеҝғеҮҪж•°пјҢеҒҸз§»6дёӘеғҸзҙ )
 361:Hardware/OLED/oled.c ****     // Show_Num_Core(xеқҗж Ү, yеқҗж Ү, ж•°еӯ—, й•ҝеәҰ, жҳҜеҗҰF6X16жЁЎејҸ)
 362:Hardware/OLED/oled.c ****     Show_Num_Core(x + 6, y, UnsignedNum, Length, 0); // 0 д»ЈиЎЁ F5X8 жЁЎејҸ
 2029              		.loc 1 362 5 is_stmt 1 view .LVU505
ARM GAS  /tmp/ccYbGAiO.s 			page 49


 2030 0056 A81D     		adds	r0, r5, #6
 2031 0058 0094     		str	r4, [sp]
 2032 005a 3B46     		mov	r3, r7
 2033 005c 3146     		mov	r1, r6
 2034 005e C0B2     		uxtb	r0, r0
 2035 0060 FFF7FEFF 		bl	Show_Num_Core
 2036              	.LVL221:
 363:Hardware/OLED/oled.c **** 
 364:Hardware/OLED/oled.c ****     if (m) OLED_Refresh_Part(x, y, 6 * (Length + 1), 1); // й«ҳеәҰ1йЎө
 2037              		.loc 1 364 5 view .LVU506
 2038              		.loc 1 364 8 is_stmt 0 view .LVU507
 2039 0064 B8F1000F 		cmp	r8, #0
 2040 0068 02D1     		bne	.L147
 2041              	.L140:
 365:Hardware/OLED/oled.c **** }
 2042              		.loc 1 365 1 view .LVU508
 2043 006a 02B0     		add	sp, sp, #8
 2044              	.LCFI31:
 2045              		.cfi_remember_state
 2046              		.cfi_def_cfa_offset 24
 2047              		@ sp needed
 2048 006c BDE8F081 		pop	{r4, r5, r6, r7, r8, pc}
 2049              	.LVL222:
 2050              	.L147:
 2051              	.LCFI32:
 2052              		.cfi_restore_state
 364:Hardware/OLED/oled.c **** }
 2053              		.loc 1 364 12 is_stmt 1 discriminator 1 view .LVU509
 2054 0070 0137     		adds	r7, r7, #1
 2055 0072 07EB4707 		add	r7, r7, r7, lsl #1
 2056 0076 7A00     		lsls	r2, r7, #1
 2057 0078 0123     		movs	r3, #1
 2058 007a 02F0FE02 		and	r2, r2, #254
 2059 007e 3146     		mov	r1, r6
 2060 0080 2846     		mov	r0, r5
 2061 0082 FFF7FEFF 		bl	OLED_Refresh_Part
 2062              	.LVL223:
 2063              		.loc 1 365 1 is_stmt 0 discriminator 1 view .LVU510
 2064 0086 F0E7     		b	.L140
 2065              	.L149:
 2066              		.align	2
 2067              	.L148:
 2068 0088 00000000 		.word	.LANCHOR2
 2069 008c 00000000 		.word	.LANCHOR1
 2070              		.cfi_endproc
 2071              	.LFE83:
 2073              		.global	__aeabi_fcmplt
 2074              		.global	__aeabi_f2uiz
 2075              		.global	__aeabi_ui2f
 2076              		.global	__aeabi_fsub
 2077              		.global	__aeabi_fmul
 2078              		.global	__aeabi_f2d
 2079              		.global	__aeabi_dadd
 2080              		.global	__aeabi_d2uiz
 2081              		.section	.text.OLED_ShowFloatF6X16,"ax",%progbits
 2082              		.align	1
 2083              		.global	OLED_ShowFloatF6X16
ARM GAS  /tmp/ccYbGAiO.s 			page 50


 2084              		.syntax unified
 2085              		.thumb
 2086              		.thumb_func
 2087              		.fpu softvfp
 2089              	OLED_ShowFloatF6X16:
 2090              	.LVL224:
 2091              	.LFB84:
 366:Hardware/OLED/oled.c **** 
 367:Hardware/OLED/oled.c **** // жҳҫзӨә F6x16 жө®зӮ№ж•°
 368:Hardware/OLED/oled.c **** void OLED_ShowFloatF6X16(uint8_t x, uint8_t y, float Number, uint8_t Int_Len, uint8_t Dec_Len, uint
 2092              		.loc 1 368 107 is_stmt 1 view -0
 2093              		.cfi_startproc
 2094              		@ args = 8, pretend = 0, frame = 0
 2095              		@ frame_needed = 0, uses_anonymous_args = 0
 2096              		.loc 1 368 107 is_stmt 0 view .LVU512
 2097 0000 2DE9F04F 		push	{r4, r5, r6, r7, r8, r9, r10, fp, lr}
 2098              	.LCFI33:
 2099              		.cfi_def_cfa_offset 36
 2100              		.cfi_offset 4, -36
 2101              		.cfi_offset 5, -32
 2102              		.cfi_offset 6, -28
 2103              		.cfi_offset 7, -24
 2104              		.cfi_offset 8, -20
 2105              		.cfi_offset 9, -16
 2106              		.cfi_offset 10, -12
 2107              		.cfi_offset 11, -8
 2108              		.cfi_offset 14, -4
 2109 0004 83B0     		sub	sp, sp, #12
 2110              	.LCFI34:
 2111              		.cfi_def_cfa_offset 48
 2112 0006 0646     		mov	r6, r0
 2113 0008 0D46     		mov	r5, r1
 2114 000a 9046     		mov	r8, r2
 2115 000c 1F46     		mov	r7, r3
 2116 000e 9DF83090 		ldrb	r9, [sp, #48]	@ zero_extendqisi2
 2117 0012 9DF834A0 		ldrb	r10, [sp, #52]	@ zero_extendqisi2
 369:Hardware/OLED/oled.c ****     uint8_t sym, j;
 2118              		.loc 1 369 5 is_stmt 1 view .LVU513
 370:Hardware/OLED/oled.c ****     
 371:Hardware/OLED/oled.c ****     // 1. з¬ҰеҸ·еӨ„зҗҶ
 372:Hardware/OLED/oled.c ****     if (Number < 0) { sym = 12; Number = -Number; }
 2119              		.loc 1 372 5 view .LVU514
 2120              		.loc 1 372 8 is_stmt 0 view .LVU515
 2121 0016 0021     		movs	r1, #0
 2122              	.LVL225:
 2123              		.loc 1 372 8 view .LVU516
 2124 0018 1046     		mov	r0, r2
 2125              	.LVL226:
 2126              		.loc 1 372 8 view .LVU517
 2127 001a FFF7FEFF 		bl	__aeabi_fcmplt
 2128              	.LVL227:
 2129              		.loc 1 372 8 view .LVU518
 2130 001e 18B9     		cbnz	r0, .L164
 373:Hardware/OLED/oled.c ****     else            { sym = 11; }
 2131              		.loc 1 373 27 view .LVU519
 2132 0020 0B22     		movs	r2, #11
 2133              	.LVL228:
ARM GAS  /tmp/ccYbGAiO.s 			page 51


 2134              	.L151:
 374:Hardware/OLED/oled.c **** 
 375:Hardware/OLED/oled.c ****     // з”»з¬ҰеҸ·
 376:Hardware/OLED/oled.c ****     for(j=0; j<6; j++) {
 2135              		.loc 1 376 5 is_stmt 1 view .LVU520
 2136              		.loc 1 376 10 is_stmt 0 view .LVU521
 2137 0022 4FF0000C 		mov	ip, #0
 2138              		.loc 1 376 5 view .LVU522
 2139 0026 22E0     		b	.L153
 2140              	.LVL229:
 2141              	.L164:
 372:Hardware/OLED/oled.c ****     else            { sym = 11; }
 2142              		.loc 1 372 23 is_stmt 1 discriminator 1 view .LVU523
 372:Hardware/OLED/oled.c ****     else            { sym = 11; }
 2143              		.loc 1 372 33 discriminator 1 view .LVU524
 372:Hardware/OLED/oled.c ****     else            { sym = 11; }
 2144              		.loc 1 372 40 is_stmt 0 discriminator 1 view .LVU525
 2145 0028 08F10048 		add	r8, r8, #-2147483648
 2146              	.LVL230:
 372:Hardware/OLED/oled.c ****     else            { sym = 11; }
 2147              		.loc 1 372 27 discriminator 1 view .LVU526
 2148 002c 0C22     		movs	r2, #12
 2149 002e F8E7     		b	.L151
 2150              	.LVL231:
 2151              	.L154:
 377:Hardware/OLED/oled.c ****          OLED_GRAM[y][x+j] = Font_Num_6X16[sym][j];
 2152              		.loc 1 377 10 is_stmt 1 discriminator 3 view .LVU527
 2153              		.loc 1 377 24 is_stmt 0 discriminator 3 view .LVU528
 2154 0030 06EB0C01 		add	r1, r6, ip
 2155              		.loc 1 377 48 discriminator 3 view .LVU529
 2156 0034 494B     		ldr	r3, .L165
 2157 0036 02EB4200 		add	r0, r2, r2, lsl #1
 2158 003a 03EB8000 		add	r0, r3, r0, lsl #2
 2159 003e 10F80CE0 		ldrb	lr, [r0, ip]	@ zero_extendqisi2
 2160              		.loc 1 377 28 discriminator 3 view .LVU530
 2161 0042 474C     		ldr	r4, .L165+4
 2162 0044 04EBC510 		add	r0, r4, r5, lsl #7
 2163 0048 00F801E0 		strb	lr, [r0, r1]
 378:Hardware/OLED/oled.c ****          OLED_GRAM[y+1][x+j] = Font_Num_6X16[sym][j+6];
 2164              		.loc 1 378 10 is_stmt 1 discriminator 3 view .LVU531
 2165              		.loc 1 378 52 is_stmt 0 discriminator 3 view .LVU532
 2166 004c 0CF1060E 		add	lr, ip, #6
 2167              		.loc 1 378 21 discriminator 3 view .LVU533
 2168 0050 681C     		adds	r0, r5, #1
 2169              		.loc 1 378 50 discriminator 3 view .LVU534
 2170 0052 02EB420B 		add	fp, r2, r2, lsl #1
 2171 0056 03EB8B03 		add	r3, r3, fp, lsl #2
 2172 005a 13F80EE0 		ldrb	lr, [r3, lr]	@ zero_extendqisi2
 2173              		.loc 1 378 30 discriminator 3 view .LVU535
 2174 005e 04EBC014 		add	r4, r4, r0, lsl #7
 2175 0062 04F801E0 		strb	lr, [r4, r1]
 376:Hardware/OLED/oled.c ****          OLED_GRAM[y][x+j] = Font_Num_6X16[sym][j];
 2176              		.loc 1 376 19 is_stmt 1 discriminator 3 view .LVU536
 376:Hardware/OLED/oled.c ****          OLED_GRAM[y][x+j] = Font_Num_6X16[sym][j];
 2177              		.loc 1 376 20 is_stmt 0 discriminator 3 view .LVU537
 2178 0066 0CF1010C 		add	ip, ip, #1
 2179              	.LVL232:
ARM GAS  /tmp/ccYbGAiO.s 			page 52


 376:Hardware/OLED/oled.c ****          OLED_GRAM[y][x+j] = Font_Num_6X16[sym][j];
 2180              		.loc 1 376 20 discriminator 3 view .LVU538
 2181 006a 5FFA8CFC 		uxtb	ip, ip
 2182              	.LVL233:
 2183              	.L153:
 376:Hardware/OLED/oled.c ****          OLED_GRAM[y][x+j] = Font_Num_6X16[sym][j];
 2184              		.loc 1 376 14 is_stmt 1 discriminator 1 view .LVU539
 376:Hardware/OLED/oled.c ****          OLED_GRAM[y][x+j] = Font_Num_6X16[sym][j];
 2185              		.loc 1 376 5 is_stmt 0 discriminator 1 view .LVU540
 2186 006e BCF1050F 		cmp	ip, #5
 2187 0072 DDD9     		bls	.L154
 379:Hardware/OLED/oled.c ****     }
 380:Hardware/OLED/oled.c **** 
 381:Hardware/OLED/oled.c ****     // 2. ж•ҙж•°йғЁеҲҶ
 382:Hardware/OLED/oled.c ****     uint32_t Int_Part = (uint32_t)Number;
 2188              		.loc 1 382 5 is_stmt 1 view .LVU541
 2189              		.loc 1 382 14 is_stmt 0 view .LVU542
 2190 0074 4046     		mov	r0, r8
 2191 0076 FFF7FEFF 		bl	__aeabi_f2uiz
 2192              	.LVL234:
 2193              		.loc 1 382 14 view .LVU543
 2194 007a 0446     		mov	r4, r0
 2195              	.LVL235:
 383:Hardware/OLED/oled.c ****     Show_Num_Core(x + 6, y, Int_Part, Int_Len, 1);
 2196              		.loc 1 383 5 is_stmt 1 view .LVU544
 2197 007c B01D     		adds	r0, r6, #6
 2198              	.LVL236:
 2199              		.loc 1 383 5 is_stmt 0 view .LVU545
 2200 007e 0123     		movs	r3, #1
 2201 0080 0093     		str	r3, [sp]
 2202 0082 3B46     		mov	r3, r7
 2203 0084 2246     		mov	r2, r4
 2204 0086 2946     		mov	r1, r5
 2205 0088 C0B2     		uxtb	r0, r0
 2206 008a FFF7FEFF 		bl	Show_Num_Core
 2207              	.LVL237:
 384:Hardware/OLED/oled.c **** 
 385:Hardware/OLED/oled.c ****     // 3. е°Ҹж•°йғЁеҲҶ
 386:Hardware/OLED/oled.c ****     if(Dec_Len > 0) {
 2208              		.loc 1 386 5 is_stmt 1 view .LVU546
 2209              		.loc 1 386 7 is_stmt 0 view .LVU547
 2210 008e B9F1000F 		cmp	r9, #0
 2211 0092 46D0     		beq	.L155
 2212              	.LBB6:
 387:Hardware/OLED/oled.c ****         // еӣӣиҲҚдә”е…ҘжҸҗеҸ–е°Ҹж•°
 388:Hardware/OLED/oled.c ****         uint32_t Dec_Part = (uint32_t)((Number - Int_Part) * OLED_Pow(10, Dec_Len) + 0.5);
 2213              		.loc 1 388 9 is_stmt 1 view .LVU548
 2214              		.loc 1 388 48 is_stmt 0 view .LVU549
 2215 0094 2046     		mov	r0, r4
 2216 0096 FFF7FEFF 		bl	__aeabi_ui2f
 2217              	.LVL238:
 2218 009a 0146     		mov	r1, r0
 2219 009c 4046     		mov	r0, r8
 2220 009e FFF7FEFF 		bl	__aeabi_fsub
 2221              	.LVL239:
 2222 00a2 0446     		mov	r4, r0
 2223              	.LVL240:
ARM GAS  /tmp/ccYbGAiO.s 			page 53


 2224              		.loc 1 388 62 view .LVU550
 2225 00a4 4946     		mov	r1, r9
 2226 00a6 0A20     		movs	r0, #10
 2227 00a8 FFF7FEFF 		bl	OLED_Pow
 2228              	.LVL241:
 2229              		.loc 1 388 60 view .LVU551
 2230 00ac FFF7FEFF 		bl	__aeabi_ui2f
 2231              	.LVL242:
 2232 00b0 2146     		mov	r1, r4
 2233 00b2 FFF7FEFF 		bl	__aeabi_fmul
 2234              	.LVL243:
 2235 00b6 FFF7FEFF 		bl	__aeabi_f2d
 2236              	.LVL244:
 2237              		.loc 1 388 84 view .LVU552
 2238 00ba 0022     		movs	r2, #0
 2239 00bc 294B     		ldr	r3, .L165+8
 2240 00be FFF7FEFF 		bl	__aeabi_dadd
 2241              	.LVL245:
 2242              		.loc 1 388 18 view .LVU553
 2243 00c2 FFF7FEFF 		bl	__aeabi_d2uiz
 2244              	.LVL246:
 2245 00c6 0246     		mov	r2, r0
 2246              	.LVL247:
 389:Hardware/OLED/oled.c ****         
 390:Hardware/OLED/oled.c ****         // з”»е°Ҹж•°зӮ№ (еңЁж•ҙж•°еҗҺйқў)
 391:Hardware/OLED/oled.c ****         uint8_t dot_x = x + 6 + Int_Len * 6;
 2247              		.loc 1 391 9 is_stmt 1 view .LVU554
 2248              		.loc 1 391 31 is_stmt 0 view .LVU555
 2249 00c8 07EB4700 		add	r0, r7, r7, lsl #1
 2250              	.LVL248:
 2251              		.loc 1 391 31 view .LVU556
 2252 00cc 06EB4000 		add	r0, r6, r0, lsl #1
 2253 00d0 C0B2     		uxtb	r0, r0
 2254              		.loc 1 391 17 view .LVU557
 2255 00d2 00F1060E 		add	lr, r0, #6
 2256 00d6 5FFA8EFE 		uxtb	lr, lr
 2257              	.LVL249:
 392:Hardware/OLED/oled.c ****         for(j=0; j<6; j++) {
 2258              		.loc 1 392 9 is_stmt 1 view .LVU558
 2259              		.loc 1 392 14 is_stmt 0 view .LVU559
 2260 00da 0023     		movs	r3, #0
 2261              		.loc 1 392 9 view .LVU560
 2262 00dc 17E0     		b	.L156
 2263              	.LVL250:
 2264              	.L157:
 393:Hardware/OLED/oled.c ****             OLED_GRAM[y][dot_x+j] = Font_Num_6X16[10][j]; // еҒҮи®ҫзҙўеј•10жҳҜзӮ№
 2265              		.loc 1 393 13 is_stmt 1 discriminator 3 view .LVU561
 2266              		.loc 1 393 31 is_stmt 0 discriminator 3 view .LVU562
 2267 00de 0EEB030C 		add	ip, lr, r3
 2268              		.loc 1 393 54 discriminator 3 view .LVU563
 2269 00e2 1E4C     		ldr	r4, .L165
 2270 00e4 E118     		adds	r1, r4, r3
 2271 00e6 91F878B0 		ldrb	fp, [r1, #120]	@ zero_extendqisi2
 2272              		.loc 1 393 35 discriminator 3 view .LVU564
 2273 00ea 1D49     		ldr	r1, .L165+4
 2274 00ec 01EBC518 		add	r8, r1, r5, lsl #7
 2275 00f0 08F80CB0 		strb	fp, [r8, ip]
ARM GAS  /tmp/ccYbGAiO.s 			page 54


 394:Hardware/OLED/oled.c ****             OLED_GRAM[y+1][dot_x+j] = Font_Num_6X16[10][j+6];
 2276              		.loc 1 394 13 is_stmt 1 discriminator 3 view .LVU565
 2277              		.loc 1 394 58 is_stmt 0 discriminator 3 view .LVU566
 2278 00f4 03F1060B 		add	fp, r3, #6
 2279              		.loc 1 394 24 discriminator 3 view .LVU567
 2280 00f8 05F10108 		add	r8, r5, #1
 2281              		.loc 1 394 56 discriminator 3 view .LVU568
 2282 00fc 5C44     		add	r4, r4, fp
 2283 00fe 94F87840 		ldrb	r4, [r4, #120]	@ zero_extendqisi2
 2284              		.loc 1 394 37 discriminator 3 view .LVU569
 2285 0102 01EBC811 		add	r1, r1, r8, lsl #7
 2286 0106 01F80C40 		strb	r4, [r1, ip]
 392:Hardware/OLED/oled.c ****         for(j=0; j<6; j++) {
 2287              		.loc 1 392 23 is_stmt 1 discriminator 3 view .LVU570
 392:Hardware/OLED/oled.c ****         for(j=0; j<6; j++) {
 2288              		.loc 1 392 24 is_stmt 0 discriminator 3 view .LVU571
 2289 010a 0133     		adds	r3, r3, #1
 2290              	.LVL251:
 392:Hardware/OLED/oled.c ****         for(j=0; j<6; j++) {
 2291              		.loc 1 392 24 discriminator 3 view .LVU572
 2292 010c DBB2     		uxtb	r3, r3
 2293              	.LVL252:
 2294              	.L156:
 392:Hardware/OLED/oled.c ****         for(j=0; j<6; j++) {
 2295              		.loc 1 392 18 is_stmt 1 discriminator 1 view .LVU573
 392:Hardware/OLED/oled.c ****         for(j=0; j<6; j++) {
 2296              		.loc 1 392 9 is_stmt 0 discriminator 1 view .LVU574
 2297 010e 052B     		cmp	r3, #5
 2298 0110 E5D9     		bls	.L157
 395:Hardware/OLED/oled.c ****         }
 396:Hardware/OLED/oled.c **** 
 397:Hardware/OLED/oled.c ****         // з”»е°Ҹж•°ж•°еӯ— (еңЁзӮ№еҗҺйқў)
 398:Hardware/OLED/oled.c ****         Show_Num_Core(dot_x + 6, y, Dec_Part, Dec_Len, 1);
 2299              		.loc 1 398 9 is_stmt 1 view .LVU575
 2300 0112 0C30     		adds	r0, r0, #12
 2301 0114 0123     		movs	r3, #1
 2302              	.LVL253:
 2303              		.loc 1 398 9 is_stmt 0 view .LVU576
 2304 0116 0093     		str	r3, [sp]
 2305 0118 4B46     		mov	r3, r9
 2306 011a 2946     		mov	r1, r5
 2307 011c C0B2     		uxtb	r0, r0
 2308 011e FFF7FEFF 		bl	Show_Num_Core
 2309              	.LVL254:
 2310              	.L155:
 2311              		.loc 1 398 9 view .LVU577
 2312              	.LBE6:
 399:Hardware/OLED/oled.c ****     }
 400:Hardware/OLED/oled.c ****     
 401:Hardware/OLED/oled.c ****     if (m) {
 2313              		.loc 1 401 5 is_stmt 1 view .LVU578
 2314              		.loc 1 401 8 is_stmt 0 view .LVU579
 2315 0122 BAF1000F 		cmp	r10, #0
 2316 0126 16D0     		beq	.L150
 2317              	.LBB7:
 402:Hardware/OLED/oled.c ****         uint8_t total_w = 6 + Int_Len*6 + (Dec_Len > 0 ? (6 + Dec_Len*6) : 0);
 2318              		.loc 1 402 9 is_stmt 1 view .LVU580
ARM GAS  /tmp/ccYbGAiO.s 			page 55


 2319              		.loc 1 402 41 is_stmt 0 view .LVU581
 2320 0128 0137     		adds	r7, r7, #1
 2321 012a 07EB4707 		add	r7, r7, r7, lsl #1
 2322 012e 7A00     		lsls	r2, r7, #1
 2323 0130 D2B2     		uxtb	r2, r2
 2324 0132 B9F1000F 		cmp	r9, #0
 2325 0136 07D0     		beq	.L159
 2326              		.loc 1 402 41 discriminator 1 view .LVU582
 2327 0138 09F10109 		add	r9, r9, #1
 2328 013c 09EB4909 		add	r9, r9, r9, lsl #1
 2329 0140 4FEA4909 		lsl	r9, r9, #1
 2330 0144 5FFA89F9 		uxtb	r9, r9
 2331              	.L159:
 2332              		.loc 1 402 17 discriminator 4 view .LVU583
 2333 0148 4A44     		add	r2, r2, r9
 2334              	.LVL255:
 403:Hardware/OLED/oled.c ****         OLED_Refresh_Part(x, y, total_w, 2);
 2335              		.loc 1 403 9 is_stmt 1 discriminator 4 view .LVU584
 2336 014a 0223     		movs	r3, #2
 2337 014c D2B2     		uxtb	r2, r2
 2338              		.loc 1 403 9 is_stmt 0 discriminator 4 view .LVU585
 2339 014e 2946     		mov	r1, r5
 2340 0150 3046     		mov	r0, r6
 2341 0152 FFF7FEFF 		bl	OLED_Refresh_Part
 2342              	.LVL256:
 2343              	.L150:
 2344              		.loc 1 403 9 discriminator 4 view .LVU586
 2345              	.LBE7:
 404:Hardware/OLED/oled.c ****     }
 405:Hardware/OLED/oled.c **** }
 2346              		.loc 1 405 1 view .LVU587
 2347 0156 03B0     		add	sp, sp, #12
 2348              	.LCFI35:
 2349              		.cfi_def_cfa_offset 36
 2350              		@ sp needed
 2351 0158 BDE8F08F 		pop	{r4, r5, r6, r7, r8, r9, r10, fp, pc}
 2352              	.LVL257:
 2353              	.L166:
 2354              		.loc 1 405 1 view .LVU588
 2355              		.align	2
 2356              	.L165:
 2357 015c 00000000 		.word	.LANCHOR0
 2358 0160 00000000 		.word	.LANCHOR1
 2359 0164 0000E03F 		.word	1071644672
 2360              		.cfi_endproc
 2361              	.LFE84:
 2363              		.section	.text.OLED_ShowFloatF6X8,"ax",%progbits
 2364              		.align	1
 2365              		.global	OLED_ShowFloatF6X8
 2366              		.syntax unified
 2367              		.thumb
 2368              		.thumb_func
 2369              		.fpu softvfp
 2371              	OLED_ShowFloatF6X8:
 2372              	.LVL258:
 2373              	.LFB85:
 406:Hardware/OLED/oled.c **** 
ARM GAS  /tmp/ccYbGAiO.s 			page 56


 407:Hardware/OLED/oled.c **** // жҳҫзӨәжө®зӮ№ж•° F5X8
 408:Hardware/OLED/oled.c **** void OLED_ShowFloatF6X8(uint8_t x, uint8_t y, float Number, uint8_t Int_Len, uint8_t Dec_Len, uint8
 2374              		.loc 1 408 106 is_stmt 1 view -0
 2375              		.cfi_startproc
 2376              		@ args = 8, pretend = 0, frame = 0
 2377              		@ frame_needed = 0, uses_anonymous_args = 0
 2378              		.loc 1 408 106 is_stmt 0 view .LVU590
 2379 0000 2DE9F04F 		push	{r4, r5, r6, r7, r8, r9, r10, fp, lr}
 2380              	.LCFI36:
 2381              		.cfi_def_cfa_offset 36
 2382              		.cfi_offset 4, -36
 2383              		.cfi_offset 5, -32
 2384              		.cfi_offset 6, -28
 2385              		.cfi_offset 7, -24
 2386              		.cfi_offset 8, -20
 2387              		.cfi_offset 9, -16
 2388              		.cfi_offset 10, -12
 2389              		.cfi_offset 11, -8
 2390              		.cfi_offset 14, -4
 2391 0004 83B0     		sub	sp, sp, #12
 2392              	.LCFI37:
 2393              		.cfi_def_cfa_offset 48
 2394 0006 0546     		mov	r5, r0
 2395 0008 0C46     		mov	r4, r1
 2396 000a 1746     		mov	r7, r2
 2397 000c 1E46     		mov	r6, r3
 2398 000e 9DF83080 		ldrb	r8, [sp, #48]	@ zero_extendqisi2
 2399 0012 9DF83490 		ldrb	r9, [sp, #52]	@ zero_extendqisi2
 409:Hardware/OLED/oled.c ****     uint8_t sym, j;
 2400              		.loc 1 409 5 is_stmt 1 view .LVU591
 410:Hardware/OLED/oled.c ****     
 411:Hardware/OLED/oled.c ****     // 1. з¬ҰеҸ·еӨ„зҗҶ
 412:Hardware/OLED/oled.c ****     if (Number < 0) { sym = 12; Number = -Number; }
 2401              		.loc 1 412 5 view .LVU592
 2402              		.loc 1 412 8 is_stmt 0 view .LVU593
 2403 0016 0021     		movs	r1, #0
 2404              	.LVL259:
 2405              		.loc 1 412 8 view .LVU594
 2406 0018 1046     		mov	r0, r2
 2407              	.LVL260:
 2408              		.loc 1 412 8 view .LVU595
 2409 001a FFF7FEFF 		bl	__aeabi_fcmplt
 2410              	.LVL261:
 2411              		.loc 1 412 8 view .LVU596
 2412 001e 18B9     		cbnz	r0, .L181
 413:Hardware/OLED/oled.c ****     else            { sym = 11; } // '+' жҲ– ' '
 2413              		.loc 1 413 27 view .LVU597
 2414 0020 0B22     		movs	r2, #11
 2415              	.LVL262:
 2416              	.L168:
 414:Hardware/OLED/oled.c **** 
 415:Hardware/OLED/oled.c ****     // з”»з¬ҰеҸ·
 416:Hardware/OLED/oled.c ****     for (j = 0; j < 5; j++) OLED_GRAM[y][x + j] = Font_Num_5X8[sym][j];
 2417              		.loc 1 416 5 is_stmt 1 view .LVU598
 2418              		.loc 1 416 12 is_stmt 0 view .LVU599
 2419 0022 4FF0000C 		mov	ip, #0
 2420              		.loc 1 416 5 view .LVU600
ARM GAS  /tmp/ccYbGAiO.s 			page 57


 2421 0026 14E0     		b	.L170
 2422              	.LVL263:
 2423              	.L181:
 412:Hardware/OLED/oled.c ****     else            { sym = 11; } // '+' жҲ– ' '
 2424              		.loc 1 412 23 is_stmt 1 discriminator 1 view .LVU601
 412:Hardware/OLED/oled.c ****     else            { sym = 11; } // '+' жҲ– ' '
 2425              		.loc 1 412 33 discriminator 1 view .LVU602
 412:Hardware/OLED/oled.c ****     else            { sym = 11; } // '+' жҲ– ' '
 2426              		.loc 1 412 40 is_stmt 0 discriminator 1 view .LVU603
 2427 0028 07F10047 		add	r7, r7, #-2147483648
 2428              	.LVL264:
 412:Hardware/OLED/oled.c ****     else            { sym = 11; } // '+' жҲ– ' '
 2429              		.loc 1 412 27 discriminator 1 view .LVU604
 2430 002c 0C22     		movs	r2, #12
 2431 002e F8E7     		b	.L168
 2432              	.LVL265:
 2433              	.L171:
 2434              		.loc 1 416 29 is_stmt 1 discriminator 3 view .LVU605
 2435              		.loc 1 416 44 is_stmt 0 discriminator 3 view .LVU606
 2436 0030 05EB0C01 		add	r1, r5, ip
 2437              		.loc 1 416 68 discriminator 3 view .LVU607
 2438 0034 02EB8200 		add	r0, r2, r2, lsl #2
 2439 0038 414B     		ldr	r3, .L183
 2440 003a 0344     		add	r3, r3, r0
 2441 003c 13F80C00 		ldrb	r0, [r3, ip]	@ zero_extendqisi2
 2442              		.loc 1 416 49 discriminator 3 view .LVU608
 2443 0040 404B     		ldr	r3, .L183+4
 2444 0042 03EBC41E 		add	lr, r3, r4, lsl #7
 2445 0046 0EF80100 		strb	r0, [lr, r1]
 2446              		.loc 1 416 24 is_stmt 1 discriminator 3 view .LVU609
 2447              		.loc 1 416 25 is_stmt 0 discriminator 3 view .LVU610
 2448 004a 0CF1010C 		add	ip, ip, #1
 2449              	.LVL266:
 2450              		.loc 1 416 25 discriminator 3 view .LVU611
 2451 004e 5FFA8CFC 		uxtb	ip, ip
 2452              	.LVL267:
 2453              	.L170:
 2454              		.loc 1 416 17 is_stmt 1 discriminator 1 view .LVU612
 2455              		.loc 1 416 5 is_stmt 0 discriminator 1 view .LVU613
 2456 0052 BCF1040F 		cmp	ip, #4
 2457 0056 EBD9     		bls	.L171
 417:Hardware/OLED/oled.c ****     OLED_GRAM[y][x + 5] = 0;
 2458              		.loc 1 417 5 is_stmt 1 view .LVU614
 2459              		.loc 1 417 20 is_stmt 0 view .LVU615
 2460 0058 6B1D     		adds	r3, r5, #5
 2461              		.loc 1 417 25 view .LVU616
 2462 005a 3A4A     		ldr	r2, .L183+4
 2463              	.LVL268:
 2464              		.loc 1 417 25 view .LVU617
 2465 005c 02EBC412 		add	r2, r2, r4, lsl #7
 2466 0060 4FF0000B 		mov	fp, #0
 2467 0064 02F803B0 		strb	fp, [r2, r3]
 418:Hardware/OLED/oled.c **** 
 419:Hardware/OLED/oled.c ****     // 2. ж•ҙж•°йғЁеҲҶ
 420:Hardware/OLED/oled.c ****     uint32_t Int_Part = (uint32_t)Number;
 2468              		.loc 1 420 5 is_stmt 1 view .LVU618
 2469              		.loc 1 420 14 is_stmt 0 view .LVU619
ARM GAS  /tmp/ccYbGAiO.s 			page 58


 2470 0068 3846     		mov	r0, r7
 2471 006a FFF7FEFF 		bl	__aeabi_f2uiz
 2472              	.LVL269:
 2473              		.loc 1 420 14 view .LVU620
 2474 006e 8246     		mov	r10, r0
 2475              	.LVL270:
 421:Hardware/OLED/oled.c ****     // и°ғз”Ёж ёеҝғеҮҪж•°жҳҫзӨәж•ҙж•° (еҒҸз§»6еғҸзҙ )
 422:Hardware/OLED/oled.c ****     Show_Num_Core(x + 6, y, Int_Part, Int_Len, 0);
 2476              		.loc 1 422 5 is_stmt 1 view .LVU621
 2477 0070 A81D     		adds	r0, r5, #6
 2478              	.LVL271:
 2479              		.loc 1 422 5 is_stmt 0 view .LVU622
 2480 0072 CDF800B0 		str	fp, [sp]
 2481 0076 3346     		mov	r3, r6
 2482 0078 5246     		mov	r2, r10
 2483 007a 2146     		mov	r1, r4
 2484 007c C0B2     		uxtb	r0, r0
 2485 007e FFF7FEFF 		bl	Show_Num_Core
 2486              	.LVL272:
 423:Hardware/OLED/oled.c **** 
 424:Hardware/OLED/oled.c ****     // 3. е°Ҹж•°йғЁеҲҶ
 425:Hardware/OLED/oled.c ****     if(Dec_Len > 0) {
 2487              		.loc 1 425 5 is_stmt 1 view .LVU623
 2488              		.loc 1 425 7 is_stmt 0 view .LVU624
 2489 0082 B8F1000F 		cmp	r8, #0
 2490 0086 3ED0     		beq	.L172
 2491              	.LBB8:
 426:Hardware/OLED/oled.c ****         // и®Ўз®—е°Ҹж•°ж•°еҖј
 427:Hardware/OLED/oled.c ****         uint32_t Dec_Part = (uint32_t)((Number - Int_Part) * OLED_Pow(10, Dec_Len) + 0.5);
 2492              		.loc 1 427 9 is_stmt 1 view .LVU625
 2493              		.loc 1 427 48 is_stmt 0 view .LVU626
 2494 0088 5046     		mov	r0, r10
 2495 008a FFF7FEFF 		bl	__aeabi_ui2f
 2496              	.LVL273:
 2497 008e 0146     		mov	r1, r0
 2498 0090 3846     		mov	r0, r7
 2499 0092 FFF7FEFF 		bl	__aeabi_fsub
 2500              	.LVL274:
 2501 0096 0746     		mov	r7, r0
 2502              	.LVL275:
 2503              		.loc 1 427 62 view .LVU627
 2504 0098 4146     		mov	r1, r8
 2505 009a 0A20     		movs	r0, #10
 2506 009c FFF7FEFF 		bl	OLED_Pow
 2507              	.LVL276:
 2508              		.loc 1 427 60 view .LVU628
 2509 00a0 FFF7FEFF 		bl	__aeabi_ui2f
 2510              	.LVL277:
 2511 00a4 3946     		mov	r1, r7
 2512 00a6 FFF7FEFF 		bl	__aeabi_fmul
 2513              	.LVL278:
 2514 00aa FFF7FEFF 		bl	__aeabi_f2d
 2515              	.LVL279:
 2516              		.loc 1 427 84 view .LVU629
 2517 00ae 0022     		movs	r2, #0
 2518 00b0 254B     		ldr	r3, .L183+8
 2519 00b2 FFF7FEFF 		bl	__aeabi_dadd
ARM GAS  /tmp/ccYbGAiO.s 			page 59


 2520              	.LVL280:
 2521              		.loc 1 427 18 view .LVU630
 2522 00b6 FFF7FEFF 		bl	__aeabi_d2uiz
 2523              	.LVL281:
 2524 00ba 0246     		mov	r2, r0
 2525              	.LVL282:
 428:Hardware/OLED/oled.c ****         
 429:Hardware/OLED/oled.c ****         // з”»е°Ҹж•°зӮ№ (еҒҮи®ҫзҙўеј•10жҳҜзӮ№)
 430:Hardware/OLED/oled.c ****         uint8_t dot_x = x + 6 + Int_Len * 6;
 2526              		.loc 1 430 9 is_stmt 1 view .LVU631
 2527              		.loc 1 430 31 is_stmt 0 view .LVU632
 2528 00bc 06EB4600 		add	r0, r6, r6, lsl #1
 2529              	.LVL283:
 2530              		.loc 1 430 31 view .LVU633
 2531 00c0 05EB4000 		add	r0, r5, r0, lsl #1
 2532 00c4 C0B2     		uxtb	r0, r0
 2533              		.loc 1 430 17 view .LVU634
 2534 00c6 871D     		adds	r7, r0, #6
 2535 00c8 FFB2     		uxtb	r7, r7
 2536              	.LVL284:
 431:Hardware/OLED/oled.c ****         for (j = 0; j < 5; j++) OLED_GRAM[y][dot_x + j] = Font_Num_5X8[10][j];
 2537              		.loc 1 431 9 is_stmt 1 view .LVU635
 2538              		.loc 1 431 16 is_stmt 0 view .LVU636
 2539 00ca 5B46     		mov	r3, fp
 2540              	.LVL285:
 2541              	.L173:
 2542              		.loc 1 431 21 is_stmt 1 discriminator 1 view .LVU637
 2543              		.loc 1 431 9 is_stmt 0 discriminator 1 view .LVU638
 2544 00cc 042B     		cmp	r3, #4
 2545 00ce 0DD8     		bhi	.L182
 2546              		.loc 1 431 33 is_stmt 1 discriminator 3 view .LVU639
 2547              		.loc 1 431 52 is_stmt 0 discriminator 3 view .LVU640
 2548 00d0 07EB030C 		add	ip, r7, r3
 2549              		.loc 1 431 75 discriminator 3 view .LVU641
 2550 00d4 1A49     		ldr	r1, .L183
 2551 00d6 1944     		add	r1, r1, r3
 2552 00d8 91F832E0 		ldrb	lr, [r1, #50]	@ zero_extendqisi2
 2553              		.loc 1 431 57 discriminator 3 view .LVU642
 2554 00dc 1949     		ldr	r1, .L183+4
 2555 00de 01EBC411 		add	r1, r1, r4, lsl #7
 2556 00e2 01F80CE0 		strb	lr, [r1, ip]
 2557              		.loc 1 431 28 is_stmt 1 discriminator 3 view .LVU643
 2558              		.loc 1 431 29 is_stmt 0 discriminator 3 view .LVU644
 2559 00e6 0133     		adds	r3, r3, #1
 2560              	.LVL286:
 2561              		.loc 1 431 29 discriminator 3 view .LVU645
 2562 00e8 DBB2     		uxtb	r3, r3
 2563              	.LVL287:
 2564              		.loc 1 431 29 discriminator 3 view .LVU646
 2565 00ea EFE7     		b	.L173
 2566              	.L182:
 432:Hardware/OLED/oled.c ****         OLED_GRAM[y][dot_x + 5] = 0;
 2567              		.loc 1 432 9 is_stmt 1 view .LVU647
 2568              		.loc 1 432 28 is_stmt 0 view .LVU648
 2569 00ec 0537     		adds	r7, r7, #5
 2570              	.LVL288:
 2571              		.loc 1 432 33 view .LVU649
ARM GAS  /tmp/ccYbGAiO.s 			page 60


 2572 00ee 154B     		ldr	r3, .L183+4
 2573              	.LVL289:
 2574              		.loc 1 432 33 view .LVU650
 2575 00f0 03EBC413 		add	r3, r3, r4, lsl #7
 2576 00f4 0021     		movs	r1, #0
 2577 00f6 D955     		strb	r1, [r3, r7]
 433:Hardware/OLED/oled.c **** 
 434:Hardware/OLED/oled.c ****         // з”»е°Ҹж•°ж•°еӯ— (еҒҸз§»: з¬ҰеҸ·6 + ж•ҙж•°й•ҝ*6 + е°Ҹж•°зӮ№6)
 435:Hardware/OLED/oled.c ****         Show_Num_Core(dot_x + 6, y, Dec_Part, Dec_Len, 0);
 2578              		.loc 1 435 9 is_stmt 1 view .LVU651
 2579 00f8 0C30     		adds	r0, r0, #12
 2580 00fa 0091     		str	r1, [sp]
 2581 00fc 4346     		mov	r3, r8
 2582 00fe 2146     		mov	r1, r4
 2583 0100 C0B2     		uxtb	r0, r0
 2584 0102 FFF7FEFF 		bl	Show_Num_Core
 2585              	.LVL290:
 2586              	.L172:
 2587              		.loc 1 435 9 is_stmt 0 view .LVU652
 2588              	.LBE8:
 436:Hardware/OLED/oled.c ****     }
 437:Hardware/OLED/oled.c ****     
 438:Hardware/OLED/oled.c ****     // 4. еҲ·ж–°
 439:Hardware/OLED/oled.c ****     if (m) {
 2589              		.loc 1 439 5 is_stmt 1 view .LVU653
 2590              		.loc 1 439 8 is_stmt 0 view .LVU654
 2591 0106 B9F1000F 		cmp	r9, #0
 2592 010a 16D0     		beq	.L167
 2593              	.LBB9:
 440:Hardware/OLED/oled.c ****         uint8_t total_w = 6 + Int_Len * 6 + (Dec_Len > 0 ? (6 + Dec_Len * 6) : 0);
 2594              		.loc 1 440 9 is_stmt 1 view .LVU655
 2595              		.loc 1 440 43 is_stmt 0 view .LVU656
 2596 010c 0136     		adds	r6, r6, #1
 2597 010e 06EB4606 		add	r6, r6, r6, lsl #1
 2598 0112 7200     		lsls	r2, r6, #1
 2599 0114 D2B2     		uxtb	r2, r2
 2600 0116 B8F1000F 		cmp	r8, #0
 2601 011a 07D0     		beq	.L176
 2602              		.loc 1 440 43 discriminator 1 view .LVU657
 2603 011c 08F10108 		add	r8, r8, #1
 2604 0120 08EB4808 		add	r8, r8, r8, lsl #1
 2605 0124 4FEA4808 		lsl	r8, r8, #1
 2606 0128 5FFA88F8 		uxtb	r8, r8
 2607              	.L176:
 2608              		.loc 1 440 17 discriminator 4 view .LVU658
 2609 012c 4244     		add	r2, r2, r8
 2610              	.LVL291:
 441:Hardware/OLED/oled.c ****         OLED_Refresh_Part(x, y, total_w, 1); // й«ҳеәҰ1йЎө
 2611              		.loc 1 441 9 is_stmt 1 discriminator 4 view .LVU659
 2612 012e 0123     		movs	r3, #1
 2613 0130 D2B2     		uxtb	r2, r2
 2614              		.loc 1 441 9 is_stmt 0 discriminator 4 view .LVU660
 2615 0132 2146     		mov	r1, r4
 2616 0134 2846     		mov	r0, r5
 2617 0136 FFF7FEFF 		bl	OLED_Refresh_Part
 2618              	.LVL292:
 2619              	.L167:
ARM GAS  /tmp/ccYbGAiO.s 			page 61


 2620              		.loc 1 441 9 discriminator 4 view .LVU661
 2621              	.LBE9:
 442:Hardware/OLED/oled.c ****     }
 443:Hardware/OLED/oled.c **** }
 2622              		.loc 1 443 1 view .LVU662
 2623 013a 03B0     		add	sp, sp, #12
 2624              	.LCFI38:
 2625              		.cfi_def_cfa_offset 36
 2626              		@ sp needed
 2627 013c BDE8F08F 		pop	{r4, r5, r6, r7, r8, r9, r10, fp, pc}
 2628              	.LVL293:
 2629              	.L184:
 2630              		.loc 1 443 1 view .LVU663
 2631              		.align	2
 2632              	.L183:
 2633 0140 00000000 		.word	.LANCHOR2
 2634 0144 00000000 		.word	.LANCHOR1
 2635 0148 0000E03F 		.word	1071644672
 2636              		.cfi_endproc
 2637              	.LFE85:
 2639              		.section	.text.OLED_ShowChinese,"ax",%progbits
 2640              		.align	1
 2641              		.global	OLED_ShowChinese
 2642              		.syntax unified
 2643              		.thumb
 2644              		.thumb_func
 2645              		.fpu softvfp
 2647              	OLED_ShowChinese:
 2648              	.LVL294:
 2649              	.LFB86:
 444:Hardware/OLED/oled.c **** 
 445:Hardware/OLED/oled.c **** // жұүеӯ—жҳҫзӨә (16x16)
 446:Hardware/OLED/oled.c **** void OLED_ShowChinese(uint8_t x, uint8_t y, uint8_t no, uint8_t m) {
 2650              		.loc 1 446 68 is_stmt 1 view -0
 2651              		.cfi_startproc
 2652              		@ args = 0, pretend = 0, frame = 0
 2653              		@ frame_needed = 0, uses_anonymous_args = 0
 447:Hardware/OLED/oled.c ****     uint8_t i;
 2654              		.loc 1 447 5 view .LVU665
 448:Hardware/OLED/oled.c ****     if (x > 112 || y > 6) return;
 2655              		.loc 1 448 5 view .LVU666
 2656              		.loc 1 448 8 is_stmt 0 view .LVU667
 2657 0000 7028     		cmp	r0, #112
 2658 0002 27D8     		bhi	.L190
 2659              		.loc 1 448 17 discriminator 2 view .LVU668
 2660 0004 0629     		cmp	r1, #6
 2661 0006 25D8     		bhi	.L190
 446:Hardware/OLED/oled.c ****     uint8_t i;
 2662              		.loc 1 446 68 view .LVU669
 2663 0008 F8B5     		push	{r3, r4, r5, r6, r7, lr}
 2664              	.LCFI39:
 2665              		.cfi_def_cfa_offset 24
 2666              		.cfi_offset 3, -24
 2667              		.cfi_offset 4, -20
 2668              		.cfi_offset 5, -16
 2669              		.cfi_offset 6, -12
 2670              		.cfi_offset 7, -8
ARM GAS  /tmp/ccYbGAiO.s 			page 62


 2671              		.cfi_offset 14, -4
 449:Hardware/OLED/oled.c **** 
 450:Hardware/OLED/oled.c ****     for (i = 0; i < 16; i++) {
 2672              		.loc 1 450 12 view .LVU670
 2673 000a 4FF0000C 		mov	ip, #0
 2674 000e 17E0     		b	.L187
 2675              	.LVL295:
 2676              	.L188:
 451:Hardware/OLED/oled.c ****         OLED_GRAM[y][x + i] = Hz_16X16[no][i];     // дёҠеҚҠеӯ—
 2677              		.loc 1 451 9 is_stmt 1 discriminator 3 view .LVU671
 2678              		.loc 1 451 24 is_stmt 0 discriminator 3 view .LVU672
 2679 0010 00EB0C06 		add	r6, r0, ip
 2680              		.loc 1 451 43 discriminator 3 view .LVU673
 2681 0014 104C     		ldr	r4, .L194
 2682 0016 04EB421E 		add	lr, r4, r2, lsl #5
 2683 001a 1EF80C70 		ldrb	r7, [lr, ip]	@ zero_extendqisi2
 2684              		.loc 1 451 29 discriminator 3 view .LVU674
 2685 001e 0F4C     		ldr	r4, .L194+4
 2686 0020 04EBC115 		add	r5, r4, r1, lsl #7
 2687 0024 AF55     		strb	r7, [r5, r6]
 452:Hardware/OLED/oled.c ****         OLED_GRAM[y + 1][x + i] = Hz_16X16[no][i + 16]; // дёӢеҚҠеӯ—
 2688              		.loc 1 452 9 is_stmt 1 discriminator 3 view .LVU675
 2689              		.loc 1 452 50 is_stmt 0 discriminator 3 view .LVU676
 2690 0026 0CF11007 		add	r7, ip, #16
 2691              		.loc 1 452 21 discriminator 3 view .LVU677
 2692 002a 4D1C     		adds	r5, r1, #1
 2693              		.loc 1 452 47 discriminator 3 view .LVU678
 2694 002c 1EF80770 		ldrb	r7, [lr, r7]	@ zero_extendqisi2
 2695              		.loc 1 452 33 discriminator 3 view .LVU679
 2696 0030 AE46     		mov	lr, r5
 2697 0032 04EBC514 		add	r4, r4, r5, lsl #7
 2698 0036 A755     		strb	r7, [r4, r6]
 450:Hardware/OLED/oled.c ****         OLED_GRAM[y][x + i] = Hz_16X16[no][i];     // дёҠеҚҠеӯ—
 2699              		.loc 1 450 25 is_stmt 1 discriminator 3 view .LVU680
 450:Hardware/OLED/oled.c ****         OLED_GRAM[y][x + i] = Hz_16X16[no][i];     // дёҠеҚҠеӯ—
 2700              		.loc 1 450 26 is_stmt 0 discriminator 3 view .LVU681
 2701 0038 0CF1010C 		add	ip, ip, #1
 2702              	.LVL296:
 450:Hardware/OLED/oled.c ****         OLED_GRAM[y][x + i] = Hz_16X16[no][i];     // дёҠеҚҠеӯ—
 2703              		.loc 1 450 26 discriminator 3 view .LVU682
 2704 003c 5FFA8CFC 		uxtb	ip, ip
 2705              	.LVL297:
 2706              	.L187:
 450:Hardware/OLED/oled.c ****         OLED_GRAM[y][x + i] = Hz_16X16[no][i];     // дёҠеҚҠеӯ—
 2707              		.loc 1 450 17 is_stmt 1 discriminator 1 view .LVU683
 450:Hardware/OLED/oled.c ****         OLED_GRAM[y][x + i] = Hz_16X16[no][i];     // дёҠеҚҠеӯ—
 2708              		.loc 1 450 5 is_stmt 0 discriminator 1 view .LVU684
 2709 0040 BCF10F0F 		cmp	ip, #15
 2710 0044 E4D9     		bls	.L188
 453:Hardware/OLED/oled.c ****     }
 454:Hardware/OLED/oled.c **** 
 455:Hardware/OLED/oled.c ****     if (m) OLED_Refresh_Part(x, y, 16, 2);
 2711              		.loc 1 455 5 is_stmt 1 view .LVU685
 2712              		.loc 1 455 8 is_stmt 0 view .LVU686
 2713 0046 03B9     		cbnz	r3, .L193
 2714              	.LVL298:
 2715              	.L185:
ARM GAS  /tmp/ccYbGAiO.s 			page 63


 456:Hardware/OLED/oled.c **** }
 2716              		.loc 1 456 1 view .LVU687
 2717 0048 F8BD     		pop	{r3, r4, r5, r6, r7, pc}
 2718              	.LVL299:
 2719              	.L193:
 455:Hardware/OLED/oled.c **** }
 2720              		.loc 1 455 12 is_stmt 1 discriminator 1 view .LVU688
 2721 004a 0223     		movs	r3, #2
 2722              	.LVL300:
 455:Hardware/OLED/oled.c **** }
 2723              		.loc 1 455 12 is_stmt 0 discriminator 1 view .LVU689
 2724 004c 1022     		movs	r2, #16
 2725              	.LVL301:
 455:Hardware/OLED/oled.c **** }
 2726              		.loc 1 455 12 discriminator 1 view .LVU690
 2727 004e FFF7FEFF 		bl	OLED_Refresh_Part
 2728              	.LVL302:
 455:Hardware/OLED/oled.c **** }
 2729              		.loc 1 455 12 discriminator 1 view .LVU691
 2730 0052 F9E7     		b	.L185
 2731              	.LVL303:
 2732              	.L190:
 2733              	.LCFI40:
 2734              		.cfi_def_cfa_offset 0
 2735              		.cfi_restore 3
 2736              		.cfi_restore 4
 2737              		.cfi_restore 5
 2738              		.cfi_restore 6
 2739              		.cfi_restore 7
 2740              		.cfi_restore 14
 455:Hardware/OLED/oled.c **** }
 2741              		.loc 1 455 12 discriminator 1 view .LVU692
 2742 0054 7047     		bx	lr
 2743              	.L195:
 2744 0056 00BF     		.align	2
 2745              	.L194:
 2746 0058 00000000 		.word	.LANCHOR7
 2747 005c 00000000 		.word	.LANCHOR1
 2748              		.cfi_endproc
 2749              	.LFE86:
 2751              		.section	.text.OLED_InvertArea,"ax",%progbits
 2752              		.align	1
 2753              		.global	OLED_InvertArea
 2754              		.syntax unified
 2755              		.thumb
 2756              		.thumb_func
 2757              		.fpu softvfp
 2759              	OLED_InvertArea:
 2760              	.LVL304:
 2761              	.LFB87:
 457:Hardware/OLED/oled.c **** 
 458:Hardware/OLED/oled.c **** /**
 459:Hardware/OLED/oled.c ****  * @brief еұҖйғЁеҸҚиүІеҮҪж•° (й«ҳжҖ§иғҪдјҳеҢ–зүҲ)
 460:Hardware/OLED/oled.c ****  * @param x: иө·е§Ӣ x еқҗж Ү (0~127)
 461:Hardware/OLED/oled.c ****  * @param y: иө·е§Ӣ y еқҗж Ү (0~63)
 462:Hardware/OLED/oled.c ****  * @param w: еҢәеҹҹе®ҪеәҰ
 463:Hardware/OLED/oled.c ****  * @param h: еҢәеҹҹй«ҳеәҰ
ARM GAS  /tmp/ccYbGAiO.s 			page 64


 464:Hardware/OLED/oled.c ****  * @param m: еҲ·ж–°жЁЎејҸ (1=з«ӢеҚіеҲ·ж–°еұҸе№•, 0=еҸӘж”№жҳҫеӯҳдёҚеҲ·ж–°)
 465:Hardware/OLED/oled.c ****  */
 466:Hardware/OLED/oled.c **** void OLED_InvertArea(uint8_t x, uint8_t y, uint8_t w, uint8_t h, uint8_t m)  {
 2762              		.loc 1 466 78 is_stmt 1 view -0
 2763              		.cfi_startproc
 2764              		@ args = 4, pretend = 0, frame = 0
 2765              		@ frame_needed = 0, uses_anonymous_args = 0
 2766              		.loc 1 466 78 is_stmt 0 view .LVU694
 2767 0000 2DE9F843 		push	{r3, r4, r5, r6, r7, r8, r9, lr}
 2768              	.LCFI41:
 2769              		.cfi_def_cfa_offset 32
 2770              		.cfi_offset 3, -32
 2771              		.cfi_offset 4, -28
 2772              		.cfi_offset 5, -24
 2773              		.cfi_offset 6, -20
 2774              		.cfi_offset 7, -16
 2775              		.cfi_offset 8, -12
 2776              		.cfi_offset 9, -8
 2777              		.cfi_offset 14, -4
 2778 0004 0F46     		mov	r7, r1
 2779 0006 9846     		mov	r8, r3
 2780 0008 9DF82090 		ldrb	r9, [sp, #32]	@ zero_extendqisi2
 467:Hardware/OLED/oled.c ****     uint8_t i, j;
 2781              		.loc 1 467 5 is_stmt 1 view .LVU695
 468:Hardware/OLED/oled.c ****     uint8_t page, bit_mask;
 2782              		.loc 1 468 5 view .LVU696
 469:Hardware/OLED/oled.c ****     
 470:Hardware/OLED/oled.c ****     // --- 1. дҝ®ж”№жҳҫеӯҳ (GRAM) ---
 471:Hardware/OLED/oled.c ****     // еӨ–еұӮеҫӘзҺҜжҺ§еҲ¶вҖңиЎҢвҖқ(yеқҗж Ү)
 472:Hardware/OLED/oled.c ****     for (j = y; j < (y + h); j++) 
 2783              		.loc 1 472 5 view .LVU697
 2784              	.LVL305:
 2785              		.loc 1 472 12 is_stmt 0 view .LVU698
 2786 000c 0E46     		mov	r6, r1
 2787              		.loc 1 472 5 view .LVU699
 2788 000e 01E0     		b	.L197
 2789              	.LVL306:
 2790              	.L200:
 2791              		.loc 1 472 30 is_stmt 1 discriminator 2 view .LVU700
 2792              		.loc 1 472 31 is_stmt 0 discriminator 2 view .LVU701
 2793 0010 0136     		adds	r6, r6, #1
 2794              	.LVL307:
 2795              		.loc 1 472 31 discriminator 2 view .LVU702
 2796 0012 F6B2     		uxtb	r6, r6
 2797              	.LVL308:
 2798              	.L197:
 2799              		.loc 1 472 17 is_stmt 1 discriminator 1 view .LVU703
 2800              		.loc 1 472 24 is_stmt 0 discriminator 1 view .LVU704
 2801 0014 07EB0803 		add	r3, r7, r8
 2802              		.loc 1 472 5 discriminator 1 view .LVU705
 2803 0018 9E42     		cmp	r6, r3
 2804 001a 1CDA     		bge	.L198
 473:Hardware/OLED/oled.c ****     {
 474:Hardware/OLED/oled.c ****         // иҫ№з•Ңе®үе…ЁжЈҖжҹҘпјҡеҰӮжһң Y еқҗж Үи¶…еҮәеұҸе№•й«ҳеәҰ(64)пјҢзӣҙжҺҘеҒңжӯўпјҢйҳІжӯўеҶ…еӯҳ
 475:Hardware/OLED/oled.c ****         if (j >= 64) break;
 2805              		.loc 1 475 9 is_stmt 1 view .LVU706
 2806              		.loc 1 475 12 is_stmt 0 view .LVU707
ARM GAS  /tmp/ccYbGAiO.s 			page 65


 2807 001c 3F2E     		cmp	r6, #63
 2808 001e 1AD8     		bhi	.L198
 476:Hardware/OLED/oled.c **** 
 477:Hardware/OLED/oled.c ****         page = j / 8;          
 2809              		.loc 1 477 9 is_stmt 1 view .LVU708
 2810              		.loc 1 477 14 is_stmt 0 view .LVU709
 2811 0020 F508     		lsrs	r5, r6, #3
 2812              	.LVL309:
 478:Hardware/OLED/oled.c ****         bit_mask = 1 << (j % 8); 
 2813              		.loc 1 478 9 is_stmt 1 view .LVU710
 2814              		.loc 1 478 28 is_stmt 0 view .LVU711
 2815 0022 06F00703 		and	r3, r6, #7
 2816              		.loc 1 478 22 view .LVU712
 2817 0026 0124     		movs	r4, #1
 2818 0028 9C40     		lsls	r4, r4, r3
 2819              		.loc 1 478 18 view .LVU713
 2820 002a E4B2     		uxtb	r4, r4
 2821              	.LVL310:
 479:Hardware/OLED/oled.c **** 
 480:Hardware/OLED/oled.c ****         // еҶ…еұӮеҫӘзҺҜжҺ§еҲ¶вҖңеҲ—вҖқ(xеқҗж Ү)
 481:Hardware/OLED/oled.c ****         for (i = x; i < (x + w); i++) 
 2822              		.loc 1 481 9 is_stmt 1 view .LVU714
 2823              		.loc 1 481 16 is_stmt 0 view .LVU715
 2824 002c 8446     		mov	ip, r0
 2825              	.LVL311:
 2826              	.L199:
 2827              		.loc 1 481 21 is_stmt 1 discriminator 1 view .LVU716
 2828              		.loc 1 481 23 is_stmt 0 discriminator 1 view .LVU717
 2829 002e 6146     		mov	r1, ip
 2830              		.loc 1 481 28 discriminator 1 view .LVU718
 2831 0030 8318     		adds	r3, r0, r2
 2832              		.loc 1 481 9 discriminator 1 view .LVU719
 2833 0032 9C45     		cmp	ip, r3
 2834 0034 ECDA     		bge	.L200
 482:Hardware/OLED/oled.c ****         {
 483:Hardware/OLED/oled.c ****             // иҫ№з•Ңе®үе…ЁжЈҖжҹҘпјҡеҰӮжһң X еқҗж Үи¶…еҮәеұҸе№•е®ҪеәҰ(128)пјҢеҒңжӯўз”»иҝҷдёҖиЎҢ
 484:Hardware/OLED/oled.c ****             if (i >= 128) break;
 2835              		.loc 1 484 13 is_stmt 1 view .LVU720
 2836              		.loc 1 484 16 is_stmt 0 view .LVU721
 2837 0036 1CF0800F 		tst	ip, #128
 2838 003a E9D1     		bne	.L200
 485:Hardware/OLED/oled.c **** 
 486:Hardware/OLED/oled.c ****             // зӣҙжҺҘејӮжҲ–пјҢжһҒйҖҹж“ҚдҪң
 487:Hardware/OLED/oled.c ****             OLED_GRAM[page][i] ^= bit_mask;
 2839              		.loc 1 487 13 is_stmt 1 discriminator 2 view .LVU722
 2840              		.loc 1 487 32 is_stmt 0 discriminator 2 view .LVU723
 2841 003c 104B     		ldr	r3, .L209
 2842 003e 03EBC51E 		add	lr, r3, r5, lsl #7
 2843 0042 1EF80130 		ldrb	r3, [lr, r1]	@ zero_extendqisi2
 2844 0046 6340     		eors	r3, r3, r4
 2845 0048 0EF80130 		strb	r3, [lr, r1]
 481:Hardware/OLED/oled.c ****         {
 2846              		.loc 1 481 34 is_stmt 1 discriminator 2 view .LVU724
 481:Hardware/OLED/oled.c ****         {
 2847              		.loc 1 481 35 is_stmt 0 discriminator 2 view .LVU725
 2848 004c 0CF1010C 		add	ip, ip, #1
 2849              	.LVL312:
ARM GAS  /tmp/ccYbGAiO.s 			page 66


 481:Hardware/OLED/oled.c ****         {
 2850              		.loc 1 481 35 discriminator 2 view .LVU726
 2851 0050 5FFA8CFC 		uxtb	ip, ip
 2852              	.LVL313:
 481:Hardware/OLED/oled.c ****         {
 2853              		.loc 1 481 35 discriminator 2 view .LVU727
 2854 0054 EBE7     		b	.L199
 2855              	.LVL314:
 2856              	.L198:
 488:Hardware/OLED/oled.c ****         }
 489:Hardware/OLED/oled.c ****     }
 490:Hardware/OLED/oled.c ****     // --- 2. еұҖйғЁеҲ·ж–° (еҰӮйңҖиҰҒ) ---
 491:Hardware/OLED/oled.c ****     if (m) 
 2857              		.loc 1 491 5 is_stmt 1 view .LVU728
 2858              		.loc 1 491 8 is_stmt 0 view .LVU729
 2859 0056 B9F1000F 		cmp	r9, #0
 2860 005a 0DD0     		beq	.L196
 2861              	.LBB10:
 492:Hardware/OLED/oled.c ****     {
 493:Hardware/OLED/oled.c ****         // и®Ўз®—ж¶үеҸҠеҲ°зҡ„иө·е§ӢйЎөе’Ңз»“жқҹйЎө
 494:Hardware/OLED/oled.c ****         // е…¬ејҸеҺҹзҗҶпјҡ(з»“жқҹYеқҗж Ү) / 8 - (иө·е§ӢYеқҗж Ү) / 8 + 1
 495:Hardware/OLED/oled.c ****         uint8_t pg_start = y / 8;
 2862              		.loc 1 495 9 is_stmt 1 view .LVU730
 2863              		.loc 1 495 17 is_stmt 0 view .LVU731
 2864 005c F908     		lsrs	r1, r7, #3
 2865              	.LVL315:
 496:Hardware/OLED/oled.c ****         uint8_t pg_end   = (y + h - 1) / 8;
 2866              		.loc 1 496 9 is_stmt 1 view .LVU732
 2867              		.loc 1 496 40 is_stmt 0 view .LVU733
 2868 005e 013B     		subs	r3, r3, #1
 2869 0060 0CD4     		bmi	.L208
 2870              	.L204:
 2871              		.loc 1 496 17 view .LVU734
 2872 0062 C3F3C703 		ubfx	r3, r3, #3, #8
 2873              	.LVL316:
 497:Hardware/OLED/oled.c ****         
 498:Hardware/OLED/oled.c ****         // йҳІжӯўйЎөз Ғи®Ўз®—жәўеҮә (иҷҪз„¶еүҚйқўзҡ„ break е·Із»ҸдҝқжҠӨдәҶпјҢиҝҷйҮҢдёәдәҶйҖ»иҫ‘дёҘи
 499:Hardware/OLED/oled.c ****         if (pg_end > 7) pg_end = 7;
 2874              		.loc 1 499 9 is_stmt 1 view .LVU735
 2875              		.loc 1 499 12 is_stmt 0 view .LVU736
 2876 0066 072B     		cmp	r3, #7
 2877 0068 00D9     		bls	.L205
 2878              		.loc 1 499 32 view .LVU737
 2879 006a 0723     		movs	r3, #7
 2880              	.LVL317:
 2881              	.L205:
 500:Hardware/OLED/oled.c **** 
 501:Hardware/OLED/oled.c ****         // и°ғз”ЁдҪ зҡ„еұҖйғЁеҲ·ж–°еҮҪж•°
 502:Hardware/OLED/oled.c ****         // еҸӮж•°пјҡXиө·е§Ӣ, йЎөиө·е§Ӣ, е®ҪеәҰ, еҲ·ж–°зҡ„йЎөж•°
 503:Hardware/OLED/oled.c ****         OLED_Refresh_Part(x, pg_start, w, pg_end - pg_start + 1);
 2882              		.loc 1 503 9 is_stmt 1 view .LVU738
 2883              		.loc 1 503 50 is_stmt 0 view .LVU739
 2884 006c 5B1A     		subs	r3, r3, r1
 2885              	.LVL318:
 2886              		.loc 1 503 50 view .LVU740
 2887 006e DBB2     		uxtb	r3, r3
 2888              		.loc 1 503 9 view .LVU741
ARM GAS  /tmp/ccYbGAiO.s 			page 67


 2889 0070 0133     		adds	r3, r3, #1
 2890 0072 DBB2     		uxtb	r3, r3
 2891 0074 FFF7FEFF 		bl	OLED_Refresh_Part
 2892              	.LVL319:
 2893              	.L196:
 2894              		.loc 1 503 9 view .LVU742
 2895              	.LBE10:
 504:Hardware/OLED/oled.c ****     }
 505:Hardware/OLED/oled.c **** }
 2896              		.loc 1 505 1 view .LVU743
 2897 0078 BDE8F883 		pop	{r3, r4, r5, r6, r7, r8, r9, pc}
 2898              	.LVL320:
 2899              	.L208:
 2900              	.LBB11:
 496:Hardware/OLED/oled.c ****         
 2901              		.loc 1 496 40 view .LVU744
 2902 007c 0733     		adds	r3, r3, #7
 2903 007e F0E7     		b	.L204
 2904              	.L210:
 2905              		.align	2
 2906              	.L209:
 2907 0080 00000000 		.word	.LANCHOR1
 2908              	.LBE11:
 2909              		.cfi_endproc
 2910              	.LFE87:
 2912              		.section	.text.OLED_HardwareStartScroll,"ax",%progbits
 2913              		.align	1
 2914              		.global	OLED_HardwareStartScroll
 2915              		.syntax unified
 2916              		.thumb
 2917              		.thumb_func
 2918              		.fpu softvfp
 2920              	OLED_HardwareStartScroll:
 2921              	.LVL321:
 2922              	.LFB88:
 506:Hardware/OLED/oled.c **** 
 507:Hardware/OLED/oled.c **** /**
 508:Hardware/OLED/oled.c ****  * @brief ејҖеҗҜзЎ¬д»¶ж°ҙе№іж»ҡеҠЁ
 509:Hardware/OLED/oled.c ****  * @param dir:   ж»ҡеҠЁж–№еҗ‘ (SCROLL_RIGHT жҲ– SCROLL_LEFT)
 510:Hardware/OLED/oled.c ****  * @param start: иө·е§ӢйЎө (0~7) -> еҜ№еә”еұҸе№•зҡ„з¬¬0иЎҢеҲ°з¬¬63иЎҢ
 511:Hardware/OLED/oled.c ****  * @param end:   з»“жқҹйЎө (0~7) -> еҝ…йЎ» >= start
 512:Hardware/OLED/oled.c ****  * @param speed: ж»ҡеҠЁйҖҹеәҰ (дҪҝз”ЁжһҡдёҫеҖј)
 513:Hardware/OLED/oled.c ****  */
 514:Hardware/OLED/oled.c **** void OLED_HardwareStartScroll(OledScrollDir dir, uint8_t start, uint8_t end, OledScrollSpeed speed)
 2923              		.loc 1 514 101 is_stmt 1 view -0
 2924              		.cfi_startproc
 2925              		@ args = 0, pretend = 0, frame = 0
 2926              		@ frame_needed = 0, uses_anonymous_args = 0
 2927              		.loc 1 514 101 is_stmt 0 view .LVU746
 2928 0000 F8B5     		push	{r3, r4, r5, r6, r7, lr}
 2929              	.LCFI42:
 2930              		.cfi_def_cfa_offset 24
 2931              		.cfi_offset 3, -24
 2932              		.cfi_offset 4, -20
 2933              		.cfi_offset 5, -16
 2934              		.cfi_offset 6, -12
 2935              		.cfi_offset 7, -8
ARM GAS  /tmp/ccYbGAiO.s 			page 68


 2936              		.cfi_offset 14, -4
 2937 0002 0746     		mov	r7, r0
 2938 0004 0E46     		mov	r6, r1
 2939 0006 1446     		mov	r4, r2
 2940 0008 1D46     		mov	r5, r3
 515:Hardware/OLED/oled.c ****     // 1. е…ҲеҒңжӯўеҪ“еүҚзҡ„ж»ҡеҠЁпјҢйҳІжӯўеҶІзӘҒ
 516:Hardware/OLED/oled.c ****     OLED_Write_Cmd(0x2E); 
 2941              		.loc 1 516 5 is_stmt 1 view .LVU747
 2942 000a 2E20     		movs	r0, #46
 2943              	.LVL322:
 2944              		.loc 1 516 5 is_stmt 0 view .LVU748
 2945 000c FFF7FEFF 		bl	OLED_Write_Cmd
 2946              	.LVL323:
 517:Hardware/OLED/oled.c **** 
 518:Hardware/OLED/oled.c ****     // 2. еҸ‘йҖҒж»ҡеҠЁжҢҮд»ӨеҢ…
 519:Hardware/OLED/oled.c ****     OLED_Write_Cmd(dir);     // еҸ‘йҖҒж–№еҗ‘ (0x26 жҲ– 0x27)
 2947              		.loc 1 519 5 is_stmt 1 view .LVU749
 2948 0010 3846     		mov	r0, r7
 2949 0012 FFF7FEFF 		bl	OLED_Write_Cmd
 2950              	.LVL324:
 520:Hardware/OLED/oled.c ****     
 521:Hardware/OLED/oled.c ****     OLED_Write_Cmd(0x00);    // гҖҗиҷҡжӢҹеӯ—иҠӮ AгҖ‘(Dummy Byte)
 2951              		.loc 1 521 5 view .LVU750
 2952 0016 0020     		movs	r0, #0
 2953 0018 FFF7FEFF 		bl	OLED_Write_Cmd
 2954              	.LVL325:
 522:Hardware/OLED/oled.c ****     
 523:Hardware/OLED/oled.c ****     OLED_Write_Cmd(start);   // иө·е§ӢйЎөең°еқҖ (0-7)
 2955              		.loc 1 523 5 view .LVU751
 2956 001c 3046     		mov	r0, r6
 2957 001e FFF7FEFF 		bl	OLED_Write_Cmd
 2958              	.LVL326:
 524:Hardware/OLED/oled.c ****     
 525:Hardware/OLED/oled.c ****     OLED_Write_Cmd(speed);   // йҖҹеәҰ (её§й—ҙйҡ”)
 2959              		.loc 1 525 5 view .LVU752
 2960 0022 2846     		mov	r0, r5
 2961 0024 FFF7FEFF 		bl	OLED_Write_Cmd
 2962              	.LVL327:
 526:Hardware/OLED/oled.c ****     
 527:Hardware/OLED/oled.c ****     OLED_Write_Cmd(end);     // з»“жқҹйЎөең°еқҖ (0-7)
 2963              		.loc 1 527 5 view .LVU753
 2964 0028 2046     		mov	r0, r4
 2965 002a FFF7FEFF 		bl	OLED_Write_Cmd
 2966              	.LVL328:
 528:Hardware/OLED/oled.c ****     
 529:Hardware/OLED/oled.c ****     OLED_Write_Cmd(0x00);    // гҖҗиҷҡжӢҹеӯ—иҠӮ BгҖ‘(Dummy Byte)
 2967              		.loc 1 529 5 view .LVU754
 2968 002e 0020     		movs	r0, #0
 2969 0030 FFF7FEFF 		bl	OLED_Write_Cmd
 2970              	.LVL329:
 530:Hardware/OLED/oled.c ****     OLED_Write_Cmd(0xFF);    // гҖҗиҷҡжӢҹеӯ—иҠӮ CгҖ‘(Dummy Byte)
 2971              		.loc 1 530 5 view .LVU755
 2972 0034 FF20     		movs	r0, #255
 2973 0036 FFF7FEFF 		bl	OLED_Write_Cmd
 2974              	.LVL330:
 531:Hardware/OLED/oled.c ****     
 532:Hardware/OLED/oled.c ****     // 3. жҝҖжҙ»ж»ҡеҠЁ
ARM GAS  /tmp/ccYbGAiO.s 			page 69


 533:Hardware/OLED/oled.c ****     OLED_Write_Cmd(0x2F); 
 2975              		.loc 1 533 5 view .LVU756
 2976 003a 2F20     		movs	r0, #47
 2977 003c FFF7FEFF 		bl	OLED_Write_Cmd
 2978              	.LVL331:
 534:Hardware/OLED/oled.c **** }
 2979              		.loc 1 534 1 is_stmt 0 view .LVU757
 2980 0040 F8BD     		pop	{r3, r4, r5, r6, r7, pc}
 2981              		.cfi_endproc
 2982              	.LFE88:
 2984              		.section	.text.OLED_StopScroll,"ax",%progbits
 2985              		.align	1
 2986              		.global	OLED_StopScroll
 2987              		.syntax unified
 2988              		.thumb
 2989              		.thumb_func
 2990              		.fpu softvfp
 2992              	OLED_StopScroll:
 2993              	.LFB89:
 535:Hardware/OLED/oled.c **** 
 536:Hardware/OLED/oled.c **** // еҒңжӯўж»ҡеҠЁ (жҒўеӨҚжӯЈеёёжҳҫзӨәеҝ…йЎ»и°ғз”ЁиҝҷдёӘ)
 537:Hardware/OLED/oled.c **** void OLED_StopScroll(void) {
 2994              		.loc 1 537 28 is_stmt 1 view -0
 2995              		.cfi_startproc
 2996              		@ args = 0, pretend = 0, frame = 0
 2997              		@ frame_needed = 0, uses_anonymous_args = 0
 2998 0000 08B5     		push	{r3, lr}
 2999              	.LCFI43:
 3000              		.cfi_def_cfa_offset 8
 3001              		.cfi_offset 3, -8
 3002              		.cfi_offset 14, -4
 538:Hardware/OLED/oled.c ****     OLED_Write_Cmd(0x2E); 
 3003              		.loc 1 538 5 view .LVU759
 3004 0002 2E20     		movs	r0, #46
 3005 0004 FFF7FEFF 		bl	OLED_Write_Cmd
 3006              	.LVL332:
 539:Hardware/OLED/oled.c **** }
 3007              		.loc 1 539 1 is_stmt 0 view .LVU760
 3008 0008 08BD     		pop	{r3, pc}
 3009              		.cfi_endproc
 3010              	.LFE89:
 3012              		.section	.text.OLED_ShowPicture,"ax",%progbits
 3013              		.align	1
 3014              		.global	OLED_ShowPicture
 3015              		.syntax unified
 3016              		.thumb
 3017              		.thumb_func
 3018              		.fpu softvfp
 3020              	OLED_ShowPicture:
 3021              	.LVL333:
 3022              	.LFB90:
 540:Hardware/OLED/oled.c **** 
 541:Hardware/OLED/oled.c **** /**
 542:Hardware/OLED/oled.c ****  * @brief д»»ж„Ҹеқҗж ҮжҳҫзӨәеӣҫзүҮ (й«ҳжҖ§иғҪдјҳеҢ–зүҲ)
 543:Hardware/OLED/oled.c ****  * @note дјҳеҢ–дәҶд№ҳжі•и®Ўз®—ж¬Ўж•°пјҢеўһеҠ дәҶ X иҪҙеҝ«йҖҹи·іиҝҮжңәеҲ¶
 544:Hardware/OLED/oled.c ****  */
 545:Hardware/OLED/oled.c **** void OLED_ShowPicture(int x, int y, uint8_t w, uint8_t h, const uint8_t* BMP) {
ARM GAS  /tmp/ccYbGAiO.s 			page 70


 3023              		.loc 1 545 79 is_stmt 1 view -0
 3024              		.cfi_startproc
 3025              		@ args = 4, pretend = 0, frame = 8
 3026              		@ frame_needed = 0, uses_anonymous_args = 0
 3027              		.loc 1 545 79 is_stmt 0 view .LVU762
 3028 0000 2DE9F04F 		push	{r4, r5, r6, r7, r8, r9, r10, fp, lr}
 3029              	.LCFI44:
 3030              		.cfi_def_cfa_offset 36
 3031              		.cfi_offset 4, -36
 3032              		.cfi_offset 5, -32
 3033              		.cfi_offset 6, -28
 3034              		.cfi_offset 7, -24
 3035              		.cfi_offset 8, -20
 3036              		.cfi_offset 9, -16
 3037              		.cfi_offset 10, -12
 3038              		.cfi_offset 11, -8
 3039              		.cfi_offset 14, -4
 3040 0004 83B0     		sub	sp, sp, #12
 3041              	.LCFI45:
 3042              		.cfi_def_cfa_offset 48
 3043 0006 0646     		mov	r6, r0
 3044 0008 0191     		str	r1, [sp, #4]
 3045 000a 1546     		mov	r5, r2
 3046 000c 9A46     		mov	r10, r3
 3047 000e DDF83090 		ldr	r9, [sp, #48]
 546:Hardware/OLED/oled.c ****     uint8_t page, col, bit;
 3048              		.loc 1 546 5 is_stmt 1 view .LVU763
 547:Hardware/OLED/oled.c ****     uint8_t temp_byte;
 3049              		.loc 1 547 5 view .LVU764
 548:Hardware/OLED/oled.c ****     
 549:Hardware/OLED/oled.c ****     // иҝҷйҮҢзҡ„еҸҳйҮҸз”ЁдәҺзј“еӯҳи®Ўз®—з»“жһңпјҢйҒҝе…ҚйҮҚеӨҚи®Ўз®—
 550:Hardware/OLED/oled.c ****     int page_base_y;  // иҝҷдёҖйЎө BMP ж•°жҚ®еҜ№еә”зҡ„еұҸе№•иө·е§Ӣ Y еқҗж Ү
 3050              		.loc 1 550 5 view .LVU765
 551:Hardware/OLED/oled.c ****     int bmp_offset;   // иҝҷдёҖйЎө BMP ж•°жҚ®еңЁж•°з»„дёӯзҡ„иө·е§Ӣзҙўеј•
 3051              		.loc 1 551 5 view .LVU766
 552:Hardware/OLED/oled.c ****     int draw_x, draw_y;
 3052              		.loc 1 552 5 view .LVU767
 553:Hardware/OLED/oled.c **** 
 554:Hardware/OLED/oled.c ****     // 1. йҒҚеҺҶеӣҫзүҮзҡ„жҜҸдёҖйЎө
 555:Hardware/OLED/oled.c ****     for (page = 0; page < (h / 8); page++)
 3053              		.loc 1 555 5 view .LVU768
 3054              	.LVL334:
 3055              		.loc 1 555 15 is_stmt 0 view .LVU769
 3056 0012 0027     		movs	r7, #0
 3057              		.loc 1 555 5 view .LVU770
 3058 0014 54E0     		b	.L216
 3059              	.LVL335:
 3060              	.L222:
 556:Hardware/OLED/oled.c ****     {
 557:Hardware/OLED/oled.c ****         // гҖҗдјҳеҢ–1гҖ‘еҫӘзҺҜдёҚеҸҳејҸеӨ–жҸҗ
 558:Hardware/OLED/oled.c ****         // иҝҷдәӣи®Ўз®—и·ҹ col е’Ң bit ж— е…іпјҢжҸҗеҮәжқҘеҸӘз®—дёҖж¬ЎпјҒ
 559:Hardware/OLED/oled.c ****         page_base_y = y + (page * 8); 
 560:Hardware/OLED/oled.c ****         bmp_offset  = page * w;
 561:Hardware/OLED/oled.c **** 
 562:Hardware/OLED/oled.c ****         // 2. йҒҚеҺҶеӣҫзүҮзҡ„жҜҸдёҖеҲ—
 563:Hardware/OLED/oled.c ****         for (col = 0; col < w; col++)
 564:Hardware/OLED/oled.c ****         {
ARM GAS  /tmp/ccYbGAiO.s 			page 71


 565:Hardware/OLED/oled.c ****             draw_x = x + col;
 566:Hardware/OLED/oled.c **** 
 567:Hardware/OLED/oled.c ****             // гҖҗдјҳеҢ–2гҖ‘XиҪҙеҝ«йҖҹеүӘиЈҒ (Guard Gate)
 568:Hardware/OLED/oled.c ****             // еҰӮжһңиҝҷдёҖеҲ—зҡ„ X еқҗж Үе·Із»ҸеңЁеұҸе№•еӨ–дәҶпјҢ
 569:Hardware/OLED/oled.c ****             // ж №жң¬жІЎеҝ…иҰҒеҺ»еҸ–ж•°жҚ®гҖҒжІЎеҝ…иҰҒиҝӣ bit еҫӘзҺҜгҖҒжІЎеҝ…иҰҒз®— draw_y
 570:Hardware/OLED/oled.c ****             // зӣҙжҺҘи·іиҝҮпјҢзңҒдёӢ 8 ж¬ЎеҶ…еұӮеҫӘзҺҜзҡ„ејҖй”ҖпјҒ
 571:Hardware/OLED/oled.c ****             if (draw_x < 0 || draw_x >= 128) continue;
 572:Hardware/OLED/oled.c **** 
 573:Hardware/OLED/oled.c ****             // еҸ–еҮәиҝҷ 1 еҲ—зҡ„ 8 дёӘеғҸзҙ 
 574:Hardware/OLED/oled.c ****             temp_byte = BMP[bmp_offset + col];
 575:Hardware/OLED/oled.c **** 
 576:Hardware/OLED/oled.c ****             // 3. йҒҚеҺҶ 8 дёӘеғҸзҙ зӮ№
 577:Hardware/OLED/oled.c ****             for (bit = 0; bit < 8; bit++)
 578:Hardware/OLED/oled.c ****             {
 579:Hardware/OLED/oled.c ****                 // дҪҝз”ЁеӨ–еұӮз®—еҘҪзҡ„еҹәеҮҶеҖјпјҢеҸӘеҒҡз®ҖеҚ•зҡ„еҠ жі•
 580:Hardware/OLED/oled.c ****                 draw_y = page_base_y + bit;
 581:Hardware/OLED/oled.c **** 
 582:Hardware/OLED/oled.c ****                 // YиҪҙеүӘиЈҒ
 583:Hardware/OLED/oled.c ****                 if (draw_y < 0 || draw_y >= 64) continue;
 584:Hardware/OLED/oled.c **** 
 585:Hardware/OLED/oled.c ****                 // ж ёеҝғз”»зӮ№йҖ»иҫ‘ (иҝҷйҮҢжІЎжі•еҶҚзңҒдәҶпјҢеҝ…йЎ»йҖҗзӮ№еҲӨж–ӯ)
 586:Hardware/OLED/oled.c ****                 // зј–иҜ‘еҷЁдјҡиҮӘеҠЁжҠҠ /8 дјҳеҢ–жҲҗ >>3пјҢжҠҠ %8 дјҳеҢ–жҲҗ &7пјҢдёҚз”ЁжӢ…еҝғ
 587:Hardware/OLED/oled.c ****                 if (temp_byte & (0x01 << bit))
 588:Hardware/OLED/oled.c ****                 {
 589:Hardware/OLED/oled.c ****                     OLED_GRAM[draw_y / 8][draw_x] |= (1 << (draw_y % 8));
 3061              		.loc 1 589 38 view .LVU771
 3062 0016 E410     		asrs	r4, r4, #3
 3063              		.loc 1 589 68 view .LVU772
 3064 0018 D3F1000B 		rsbs	fp, r3, #0
 3065 001c 03F00703 		and	r3, r3, #7
 3066              	.LVL336:
 3067              		.loc 1 589 68 view .LVU773
 3068 0020 0BF0070B 		and	fp, fp, #7
 3069 0024 58BF     		it	pl
 3070 0026 CBF10003 		rsbpl	r3, fp, #0
 3071              		.loc 1 589 57 view .LVU774
 3072 002a 4FF0010B 		mov	fp, #1
 3073 002e 0BFA03F3 		lsl	r3, fp, r3
 3074              		.loc 1 589 51 view .LVU775
 3075 0032 DFF8A8B0 		ldr	fp, .L231
 3076 0036 0BEBC414 		add	r4, fp, r4, lsl #7
 3077 003a 14F800B0 		ldrb	fp, [r4, r0]	@ zero_extendqisi2
 3078 003e 4BEA0303 		orr	r3, fp, r3
 3079 0042 2354     		strb	r3, [r4, r0]
 3080              	.L220:
 577:Hardware/OLED/oled.c ****             {
 3081              		.loc 1 577 36 is_stmt 1 discriminator 2 view .LVU776
 577:Hardware/OLED/oled.c ****             {
 3082              		.loc 1 577 39 is_stmt 0 discriminator 2 view .LVU777
 3083 0044 0132     		adds	r2, r2, #1
 3084              	.LVL337:
 577:Hardware/OLED/oled.c ****             {
 3085              		.loc 1 577 39 discriminator 2 view .LVU778
 3086 0046 D2B2     		uxtb	r2, r2
 3087              	.LVL338:
 3088              	.L219:
 577:Hardware/OLED/oled.c ****             {
ARM GAS  /tmp/ccYbGAiO.s 			page 72


 3089              		.loc 1 577 27 is_stmt 1 discriminator 1 view .LVU779
 577:Hardware/OLED/oled.c ****             {
 3090              		.loc 1 577 13 is_stmt 0 discriminator 1 view .LVU780
 3091 0048 072A     		cmp	r2, #7
 3092 004a 2AD8     		bhi	.L218
 580:Hardware/OLED/oled.c **** 
 3093              		.loc 1 580 17 is_stmt 1 view .LVU781
 580:Hardware/OLED/oled.c **** 
 3094              		.loc 1 580 24 is_stmt 0 view .LVU782
 3095 004c 02EB0C03 		add	r3, r2, ip
 3096              	.LVL339:
 583:Hardware/OLED/oled.c **** 
 3097              		.loc 1 583 17 is_stmt 1 view .LVU783
 583:Hardware/OLED/oled.c **** 
 3098              		.loc 1 583 20 is_stmt 0 view .LVU784
 3099 0050 3F2B     		cmp	r3, #63
 3100 0052 F7D8     		bhi	.L220
 587:Hardware/OLED/oled.c ****                 {
 3101              		.loc 1 587 17 is_stmt 1 view .LVU785
 587:Hardware/OLED/oled.c ****                 {
 3102              		.loc 1 587 21 is_stmt 0 view .LVU786
 3103 0054 4EFA02F4 		asr	r4, lr, r2
 587:Hardware/OLED/oled.c ****                 {
 3104              		.loc 1 587 20 view .LVU787
 3105 0058 14F0010F 		tst	r4, #1
 3106 005c 04D0     		beq	.L221
 3107              		.loc 1 589 21 is_stmt 1 view .LVU788
 3108              		.loc 1 589 38 is_stmt 0 view .LVU789
 3109 005e 1C46     		mov	r4, r3
 3110 0060 002B     		cmp	r3, #0
 3111 0062 D8DA     		bge	.L222
 3112 0064 DC1D     		adds	r4, r3, #7
 3113 0066 D6E7     		b	.L222
 3114              	.L221:
 590:Hardware/OLED/oled.c ****                 }
 591:Hardware/OLED/oled.c ****                 else
 592:Hardware/OLED/oled.c ****                 {
 593:Hardware/OLED/oled.c ****                     OLED_GRAM[draw_y / 8][draw_x] &= ~(1 << (draw_y % 8));
 3115              		.loc 1 593 21 is_stmt 1 view .LVU790
 3116              		.loc 1 593 38 is_stmt 0 view .LVU791
 3117 0068 1C46     		mov	r4, r3
 3118 006a 002B     		cmp	r3, #0
 3119 006c 17DB     		blt	.L228
 3120              	.L223:
 3121              		.loc 1 593 38 view .LVU792
 3122 006e E410     		asrs	r4, r4, #3
 3123              		.loc 1 593 69 view .LVU793
 3124 0070 D3F1000B 		rsbs	fp, r3, #0
 3125 0074 03F00703 		and	r3, r3, #7
 3126              	.LVL340:
 3127              		.loc 1 593 69 view .LVU794
 3128 0078 0BF0070B 		and	fp, fp, #7
 3129 007c 58BF     		it	pl
 3130 007e CBF10003 		rsbpl	r3, fp, #0
 3131              		.loc 1 593 58 view .LVU795
 3132 0082 4FF0010B 		mov	fp, #1
 3133 0086 0BFA03F3 		lsl	r3, fp, r3
ARM GAS  /tmp/ccYbGAiO.s 			page 73


 3134              		.loc 1 593 51 view .LVU796
 3135 008a DFF850B0 		ldr	fp, .L231
 3136 008e 0BEBC414 		add	r4, fp, r4, lsl #7
 3137 0092 14F800B0 		ldrb	fp, [r4, r0]	@ zero_extendqisi2
 3138 0096 2BEA0303 		bic	r3, fp, r3
 3139 009a 2354     		strb	r3, [r4, r0]
 3140 009c D2E7     		b	.L220
 3141              	.LVL341:
 3142              	.L228:
 3143              		.loc 1 593 38 view .LVU797
 3144 009e DC1D     		adds	r4, r3, #7
 3145 00a0 E5E7     		b	.L223
 3146              	.LVL342:
 3147              	.L218:
 563:Hardware/OLED/oled.c ****         {
 3148              		.loc 1 563 32 is_stmt 1 discriminator 2 view .LVU798
 563:Hardware/OLED/oled.c ****         {
 3149              		.loc 1 563 35 is_stmt 0 discriminator 2 view .LVU799
 3150 00a2 0131     		adds	r1, r1, #1
 3151              	.LVL343:
 563:Hardware/OLED/oled.c ****         {
 3152              		.loc 1 563 35 discriminator 2 view .LVU800
 3153 00a4 C9B2     		uxtb	r1, r1
 3154              	.LVL344:
 3155              	.L217:
 563:Hardware/OLED/oled.c ****         {
 3156              		.loc 1 563 23 is_stmt 1 discriminator 1 view .LVU801
 563:Hardware/OLED/oled.c ****         {
 3157              		.loc 1 563 9 is_stmt 0 discriminator 1 view .LVU802
 3158 00a6 A942     		cmp	r1, r5
 3159 00a8 08D2     		bcs	.L229
 565:Hardware/OLED/oled.c **** 
 3160              		.loc 1 565 13 is_stmt 1 view .LVU803
 565:Hardware/OLED/oled.c **** 
 3161              		.loc 1 565 20 is_stmt 0 view .LVU804
 3162 00aa 8819     		adds	r0, r1, r6
 3163              	.LVL345:
 571:Hardware/OLED/oled.c **** 
 3164              		.loc 1 571 13 is_stmt 1 view .LVU805
 571:Hardware/OLED/oled.c **** 
 3165              		.loc 1 571 16 is_stmt 0 view .LVU806
 3166 00ac 7F28     		cmp	r0, #127
 3167 00ae F8D8     		bhi	.L218
 574:Hardware/OLED/oled.c **** 
 3168              		.loc 1 574 13 is_stmt 1 view .LVU807
 574:Hardware/OLED/oled.c **** 
 3169              		.loc 1 574 40 is_stmt 0 view .LVU808
 3170 00b0 01EB0803 		add	r3, r1, r8
 574:Hardware/OLED/oled.c **** 
 3171              		.loc 1 574 23 view .LVU809
 3172 00b4 19F803E0 		ldrb	lr, [r9, r3]	@ zero_extendqisi2
 3173              	.LVL346:
 577:Hardware/OLED/oled.c ****             {
 3174              		.loc 1 577 13 is_stmt 1 view .LVU810
 577:Hardware/OLED/oled.c ****             {
 3175              		.loc 1 577 22 is_stmt 0 view .LVU811
 3176 00b8 0022     		movs	r2, #0
ARM GAS  /tmp/ccYbGAiO.s 			page 74


 577:Hardware/OLED/oled.c ****             {
 3177              		.loc 1 577 13 view .LVU812
 3178 00ba C5E7     		b	.L219
 3179              	.LVL347:
 3180              	.L229:
 555:Hardware/OLED/oled.c ****     {
 3181              		.loc 1 555 36 is_stmt 1 discriminator 2 view .LVU813
 555:Hardware/OLED/oled.c ****     {
 3182              		.loc 1 555 40 is_stmt 0 discriminator 2 view .LVU814
 3183 00bc 0137     		adds	r7, r7, #1
 3184              	.LVL348:
 555:Hardware/OLED/oled.c ****     {
 3185              		.loc 1 555 40 discriminator 2 view .LVU815
 3186 00be FFB2     		uxtb	r7, r7
 3187              	.LVL349:
 3188              	.L216:
 555:Hardware/OLED/oled.c ****     {
 3189              		.loc 1 555 20 is_stmt 1 discriminator 1 view .LVU816
 555:Hardware/OLED/oled.c ****     {
 3190              		.loc 1 555 5 is_stmt 0 discriminator 1 view .LVU817
 3191 00c0 B7EBDA0F 		cmp	r7, r10, lsr #3
 3192 00c4 06D2     		bcs	.L230
 559:Hardware/OLED/oled.c ****         bmp_offset  = page * w;
 3193              		.loc 1 559 9 is_stmt 1 view .LVU818
 559:Hardware/OLED/oled.c ****         bmp_offset  = page * w;
 3194              		.loc 1 559 21 is_stmt 0 view .LVU819
 3195 00c6 019B     		ldr	r3, [sp, #4]
 3196 00c8 03EBC70C 		add	ip, r3, r7, lsl #3
 3197              	.LVL350:
 560:Hardware/OLED/oled.c **** 
 3198              		.loc 1 560 9 is_stmt 1 view .LVU820
 560:Hardware/OLED/oled.c **** 
 3199              		.loc 1 560 21 is_stmt 0 view .LVU821
 3200 00cc 05FB07F8 		mul	r8, r5, r7
 3201              	.LVL351:
 563:Hardware/OLED/oled.c ****         {
 3202              		.loc 1 563 9 is_stmt 1 view .LVU822
 563:Hardware/OLED/oled.c ****         {
 3203              		.loc 1 563 18 is_stmt 0 view .LVU823
 3204 00d0 0021     		movs	r1, #0
 563:Hardware/OLED/oled.c ****         {
 3205              		.loc 1 563 9 view .LVU824
 3206 00d2 E8E7     		b	.L217
 3207              	.LVL352:
 3208              	.L230:
 594:Hardware/OLED/oled.c ****                 }
 595:Hardware/OLED/oled.c ****             }
 596:Hardware/OLED/oled.c ****         }
 597:Hardware/OLED/oled.c ****     }
 598:Hardware/OLED/oled.c **** }
 3209              		.loc 1 598 1 view .LVU825
 3210 00d4 03B0     		add	sp, sp, #12
 3211              	.LCFI46:
 3212              		.cfi_def_cfa_offset 36
 3213              		@ sp needed
 3214 00d6 BDE8F08F 		pop	{r4, r5, r6, r7, r8, r9, r10, fp, pc}
 3215              	.LVL353:
ARM GAS  /tmp/ccYbGAiO.s 			page 75


 3216              	.L232:
 3217              		.loc 1 598 1 view .LVU826
 3218 00da 00BF     		.align	2
 3219              	.L231:
 3220 00dc 00000000 		.word	.LANCHOR1
 3221              		.cfi_endproc
 3222              	.LFE90:
 3224              		.section	.text.OLED_Animate_Move,"ax",%progbits
 3225              		.align	1
 3226              		.global	OLED_Animate_Move
 3227              		.syntax unified
 3228              		.thumb
 3229              		.thumb_func
 3230              		.fpu softvfp
 3232              	OLED_Animate_Move:
 3233              	.LVL354:
 3234              	.LFB91:
 599:Hardware/OLED/oled.c **** 
 600:Hardware/OLED/oled.c **** /**
 601:Hardware/OLED/oled.c ****  * @brief з®ҖеҚ•зҡ„дҪҚеӣҫз§»еҠЁеҠЁз”»
 602:Hardware/OLED/oled.c ****  * @param x_start, y_start: иө·е§Ӣеқҗж Ү
 603:Hardware/OLED/oled.c ****  * @param x_end, y_end:     з»ҲзӮ№еқҗж Ү
 604:Hardware/OLED/oled.c ****  * @param bmp:              еӣҫзүҮж•°з»„
 605:Hardware/OLED/oled.c ****  * @param w, h:             еӣҫзүҮе®Ҫй«ҳ
 606:Hardware/OLED/oled.c ****  * @param speed_delay:      з§»еҠЁжҜҸдёҖжӯҘзҡ„е»¶ж—¶(ms)пјҢи¶Ҡе°Ҹи¶Ҡеҝ«
 607:Hardware/OLED/oled.c ****  */
 608:Hardware/OLED/oled.c **** void OLED_Animate_Move(int x_start, int y_start, int x_end, int y_end, 
 609:Hardware/OLED/oled.c ****                        const uint8_t* bmp, uint8_t w, uint8_t h, int speed_delay) {
 3235              		.loc 1 609 83 is_stmt 1 view -0
 3236              		.cfi_startproc
 3237              		@ args = 16, pretend = 0, frame = 0
 3238              		@ frame_needed = 0, uses_anonymous_args = 0
 3239              		.loc 1 609 83 is_stmt 0 view .LVU828
 3240 0000 2DE9F04F 		push	{r4, r5, r6, r7, r8, r9, r10, fp, lr}
 3241              	.LCFI47:
 3242              		.cfi_def_cfa_offset 36
 3243              		.cfi_offset 4, -36
 3244              		.cfi_offset 5, -32
 3245              		.cfi_offset 6, -28
 3246              		.cfi_offset 7, -24
 3247              		.cfi_offset 8, -20
 3248              		.cfi_offset 9, -16
 3249              		.cfi_offset 10, -12
 3250              		.cfi_offset 11, -8
 3251              		.cfi_offset 14, -4
 3252 0004 83B0     		sub	sp, sp, #12
 3253              	.LCFI48:
 3254              		.cfi_def_cfa_offset 48
 3255 0006 0446     		mov	r4, r0
 3256 0008 0D46     		mov	r5, r1
 3257 000a 1646     		mov	r6, r2
 3258 000c 1F46     		mov	r7, r3
 3259 000e DDF830B0 		ldr	fp, [sp, #48]
 3260 0012 9DF83490 		ldrb	r9, [sp, #52]	@ zero_extendqisi2
 3261 0016 9DF83880 		ldrb	r8, [sp, #56]	@ zero_extendqisi2
 3262 001a DDF83CA0 		ldr	r10, [sp, #60]
 610:Hardware/OLED/oled.c ****     int current_x = x_start;
ARM GAS  /tmp/ccYbGAiO.s 			page 76


 3263              		.loc 1 610 5 is_stmt 1 view .LVU829
 3264              	.LVL355:
 611:Hardware/OLED/oled.c ****     int current_y = y_start;
 3265              		.loc 1 611 5 view .LVU830
 612:Hardware/OLED/oled.c ****     
 613:Hardware/OLED/oled.c ****     // з®ҖеҚ•зҡ„зәҝжҖ§жҸ’еҖјз§»еҠЁ (иҝҷйҮҢз®ҖеҢ–дёәжҜҸж¬Ўз§»еҠЁ 1-2 еғҸзҙ пјҢзӣҙеҲ°еҲ°иҫҫз»ҲзӮ№)
 614:Hardware/OLED/oled.c ****     while (current_x != x_end || current_y != y_end)
 3266              		.loc 1 614 5 view .LVU831
 3267              		.loc 1 614 11 is_stmt 0 view .LVU832
 3268 001e 20E0     		b	.L234
 3269              	.LVL356:
 3270              	.L239:
 615:Hardware/OLED/oled.c ****     {
 616:Hardware/OLED/oled.c ****         // 1. жҜҸж¬ЎеҫӘзҺҜеүҚпјҢеҝ…йЎ»жё…йҷӨжҳҫеӯҳ (жҲ–иҖ…еҸӘжё…йҷӨдёҠдёҖж¬Ўз”»еӣҫзҡ„еҢәеҹҹ)
 617:Hardware/OLED/oled.c ****         //    еҰӮжһңеҸӘжё…йҷӨеұҖйғЁпјҢж•ҲзҺҮжӣҙй«ҳпјҢдҪҶйҖ»иҫ‘еӨҚжқӮгҖӮиҝҷйҮҢз”Ёе…ЁеұҸжё…жј”зӨәгҖӮ
 618:Hardware/OLED/oled.c ****         OLED_Clear_Part(current_x,  current_y,  w,  h,  0);
 3271              		.loc 1 618 9 is_stmt 1 view .LVU833
 3272 0020 0023     		movs	r3, #0
 3273 0022 0093     		str	r3, [sp]
 3274 0024 4346     		mov	r3, r8
 3275 0026 4A46     		mov	r2, r9
 3276 0028 E9B2     		uxtb	r1, r5
 3277 002a E0B2     		uxtb	r0, r4
 3278 002c FFF7FEFF 		bl	OLED_Clear_Part
 3279              	.LVL357:
 619:Hardware/OLED/oled.c ****         
 620:Hardware/OLED/oled.c ****         // 2. и®Ўз®—дёӢдёҖжӯҘеқҗж Ү
 621:Hardware/OLED/oled.c ****         if (current_x < x_end) current_x++;
 3280              		.loc 1 621 9 view .LVU834
 3281              		.loc 1 621 12 is_stmt 0 view .LVU835
 3282 0030 B442     		cmp	r4, r6
 3283 0032 00DA     		bge	.L235
 3284              		.loc 1 621 32 is_stmt 1 discriminator 1 view .LVU836
 3285              		.loc 1 621 41 is_stmt 0 discriminator 1 view .LVU837
 3286 0034 0134     		adds	r4, r4, #1
 3287              	.LVL358:
 3288              	.L235:
 622:Hardware/OLED/oled.c ****         if (current_x > x_end) current_x--;
 3289              		.loc 1 622 9 is_stmt 1 view .LVU838
 3290              		.loc 1 622 12 is_stmt 0 view .LVU839
 3291 0036 B442     		cmp	r4, r6
 3292 0038 00DD     		ble	.L236
 3293              		.loc 1 622 32 is_stmt 1 discriminator 1 view .LVU840
 3294              		.loc 1 622 41 is_stmt 0 discriminator 1 view .LVU841
 3295 003a 013C     		subs	r4, r4, #1
 3296              	.LVL359:
 3297              	.L236:
 623:Hardware/OLED/oled.c ****         
 624:Hardware/OLED/oled.c ****         if (current_y < y_end) current_y++;
 3298              		.loc 1 624 9 is_stmt 1 view .LVU842
 3299              		.loc 1 624 12 is_stmt 0 view .LVU843
 3300 003c BD42     		cmp	r5, r7
 3301 003e 00DA     		bge	.L237
 3302              		.loc 1 624 32 is_stmt 1 discriminator 1 view .LVU844
 3303              		.loc 1 624 41 is_stmt 0 discriminator 1 view .LVU845
 3304 0040 0135     		adds	r5, r5, #1
 3305              	.LVL360:
ARM GAS  /tmp/ccYbGAiO.s 			page 77


 3306              	.L237:
 625:Hardware/OLED/oled.c ****         if (current_y > y_end) current_y--;
 3307              		.loc 1 625 9 is_stmt 1 view .LVU846
 3308              		.loc 1 625 12 is_stmt 0 view .LVU847
 3309 0042 BD42     		cmp	r5, r7
 3310 0044 00DD     		ble	.L238
 3311              		.loc 1 625 32 is_stmt 1 discriminator 1 view .LVU848
 3312              		.loc 1 625 41 is_stmt 0 discriminator 1 view .LVU849
 3313 0046 013D     		subs	r5, r5, #1
 3314              	.LVL361:
 3315              	.L238:
 626:Hardware/OLED/oled.c ****         
 627:Hardware/OLED/oled.c ****         // 3. еңЁж–°еқҗж Үз”»еӣҫ
 628:Hardware/OLED/oled.c ****         // жіЁж„ҸпјҡдҪ зҡ„ ShowPicture еҝ…йЎ»ж”ҜжҢҒеқҗж ҮиЈҒеүӘ(и¶Ҡз•ҢдёҚз”»)пјҢеҗҰеҲҷиҝҷйҮҢз§»еҮәе
 629:Hardware/OLED/oled.c ****         OLED_ShowPicture(current_x, current_y, w, h, bmp);
 3316              		.loc 1 629 9 is_stmt 1 view .LVU850
 3317 0048 CDF800B0 		str	fp, [sp]
 3318 004c 4346     		mov	r3, r8
 3319 004e 4A46     		mov	r2, r9
 3320 0050 2946     		mov	r1, r5
 3321 0052 2046     		mov	r0, r4
 3322 0054 FFF7FEFF 		bl	OLED_ShowPicture
 3323              	.LVL362:
 630:Hardware/OLED/oled.c **** 
 631:Hardware/OLED/oled.c ****         // 5. еҲ·ж–°еҲ°еұҸе№•
 632:Hardware/OLED/oled.c ****         OLED_Refresh();
 3324              		.loc 1 632 9 view .LVU851
 3325 0058 FFF7FEFF 		bl	OLED_Refresh
 3326              	.LVL363:
 633:Hardware/OLED/oled.c ****         
 634:Hardware/OLED/oled.c ****         // 6. жҺ§еҲ¶йҖҹеәҰ
 635:Hardware/OLED/oled.c ****         HAL_Delay(speed_delay);
 3327              		.loc 1 635 9 view .LVU852
 3328 005c 5046     		mov	r0, r10
 3329 005e FFF7FEFF 		bl	HAL_Delay
 3330              	.LVL364:
 3331              	.L234:
 614:Hardware/OLED/oled.c ****     {
 3332              		.loc 1 614 11 view .LVU853
 3333 0062 B442     		cmp	r4, r6
 3334 0064 DCD1     		bne	.L239
 614:Hardware/OLED/oled.c ****     {
 3335              		.loc 1 614 31 is_stmt 0 discriminator 1 view .LVU854
 3336 0066 BD42     		cmp	r5, r7
 3337 0068 DAD1     		bne	.L239
 636:Hardware/OLED/oled.c ****     }
 637:Hardware/OLED/oled.c **** }
 3338              		.loc 1 637 1 view .LVU855
 3339 006a 03B0     		add	sp, sp, #12
 3340              	.LCFI49:
 3341              		.cfi_def_cfa_offset 36
 3342              		@ sp needed
 3343 006c BDE8F08F 		pop	{r4, r5, r6, r7, r8, r9, r10, fp, pc}
 3344              		.loc 1 637 1 view .LVU856
 3345              		.cfi_endproc
 3346              	.LFE91:
 3348              		.global	__aeabi_fadd
ARM GAS  /tmp/ccYbGAiO.s 			page 78


 3349              		.global	__aeabi_fcmple
 3350              		.global	__aeabi_fcmpge
 3351              		.section	.text.Draw_Animation_Test,"ax",%progbits
 3352              		.align	1
 3353              		.global	Draw_Animation_Test
 3354              		.syntax unified
 3355              		.thumb
 3356              		.thumb_func
 3357              		.fpu softvfp
 3359              	Draw_Animation_Test:
 3360              	.LFB92:
 638:Hardware/OLED/oled.c **** 
 639:Hardware/OLED/oled.c **** // жөӢиҜ• Demo
 640:Hardware/OLED/oled.c **** void Draw_Animation_Test(void) {
 3361              		.loc 1 640 32 is_stmt 1 view -0
 3362              		.cfi_startproc
 3363              		@ args = 0, pretend = 0, frame = 24
 3364              		@ frame_needed = 0, uses_anonymous_args = 0
 3365 0000 F0B5     		push	{r4, r5, r6, r7, lr}
 3366              	.LCFI50:
 3367              		.cfi_def_cfa_offset 20
 3368              		.cfi_offset 4, -20
 3369              		.cfi_offset 5, -16
 3370              		.cfi_offset 6, -12
 3371              		.cfi_offset 7, -8
 3372              		.cfi_offset 14, -4
 3373 0002 87B0     		sub	sp, sp, #28
 3374              	.LCFI51:
 3375              		.cfi_def_cfa_offset 48
 641:Hardware/OLED/oled.c ****     Ball b = {64, 32, 2.5, 1.5, 3}; 
 3376              		.loc 1 641 5 view .LVU858
 3377              		.loc 1 641 10 is_stmt 0 view .LVU859
 3378 0004 01AC     		add	r4, sp, #4
 3379 0006 304D     		ldr	r5, .L255
 3380 0008 0FCD     		ldmia	r5!, {r0, r1, r2, r3}
 3381 000a 0FC4     		stmia	r4!, {r0, r1, r2, r3}
 3382 000c 2B68     		ldr	r3, [r5]
 3383 000e 2360     		str	r3, [r4]
 3384 0010 27E0     		b	.L252
 3385              	.LVL365:
 3386              	.L250:
 3387              	.LBB12:
 3388              	.LBB13:
 642:Hardware/OLED/oled.c **** 
 643:Hardware/OLED/oled.c ****     while(1) {
 644:Hardware/OLED/oled.c ****         OLED_Clear(1); // жҜҸдёҖеё§е…Ҳжё…з©ә
 645:Hardware/OLED/oled.c ****         
 646:Hardware/OLED/oled.c ****         b.x += b.vx; b.y += b.vy;
 647:Hardware/OLED/oled.c ****         
 648:Hardware/OLED/oled.c ****         // иҫ№з•ҢеҸҚеј№
 649:Hardware/OLED/oled.c ****         if (b.x <= b.r || b.x >= 127 - b.r) b.vx = -b.vx;
 650:Hardware/OLED/oled.c ****         if (b.y <= b.r || b.y >= 63 - b.r)  b.vy = -b.vy;
 651:Hardware/OLED/oled.c **** 
 652:Hardware/OLED/oled.c ****         // з®Җжҳ“з”»зҗғ (жӯЈж–№еҪў)
 653:Hardware/OLED/oled.c ****         for(uint8_t i = (uint8_t)(b.x - b.r); i <= (uint8_t)(b.x + b.r); i++) {
 654:Hardware/OLED/oled.c ****             for(uint8_t j = (uint8_t)(b.y - b.r); j <= (uint8_t)(b.y + b.r); j++) {
 655:Hardware/OLED/oled.c ****                 OLED_DrawPoint(i, j, 1);
ARM GAS  /tmp/ccYbGAiO.s 			page 79


 3389              		.loc 1 655 17 is_stmt 1 discriminator 3 view .LVU860
 3390 0012 0122     		movs	r2, #1
 3391 0014 2146     		mov	r1, r4
 3392 0016 2846     		mov	r0, r5
 3393 0018 FFF7FEFF 		bl	OLED_DrawPoint
 3394              	.LVL366:
 654:Hardware/OLED/oled.c ****                 OLED_DrawPoint(i, j, 1);
 3395              		.loc 1 654 78 discriminator 3 view .LVU861
 654:Hardware/OLED/oled.c ****                 OLED_DrawPoint(i, j, 1);
 3396              		.loc 1 654 79 is_stmt 0 discriminator 3 view .LVU862
 3397 001c 0134     		adds	r4, r4, #1
 3398              	.LVL367:
 654:Hardware/OLED/oled.c ****                 OLED_DrawPoint(i, j, 1);
 3399              		.loc 1 654 79 discriminator 3 view .LVU863
 3400 001e E4B2     		uxtb	r4, r4
 3401              	.LVL368:
 3402              	.L249:
 654:Hardware/OLED/oled.c ****                 OLED_DrawPoint(i, j, 1);
 3403              		.loc 1 654 51 is_stmt 1 discriminator 1 view .LVU864
 654:Hardware/OLED/oled.c ****                 OLED_DrawPoint(i, j, 1);
 3404              		.loc 1 654 70 is_stmt 0 discriminator 1 view .LVU865
 3405 0020 2A49     		ldr	r1, .L255+4
 3406 0022 3046     		mov	r0, r6
 3407 0024 FFF7FEFF 		bl	__aeabi_fadd
 3408              	.LVL369:
 654:Hardware/OLED/oled.c ****                 OLED_DrawPoint(i, j, 1);
 3409              		.loc 1 654 56 discriminator 1 view .LVU866
 3410 0028 FFF7FEFF 		bl	__aeabi_f2uiz
 3411              	.LVL370:
 3412 002c C0B2     		uxtb	r0, r0
 654:Hardware/OLED/oled.c ****                 OLED_DrawPoint(i, j, 1);
 3413              		.loc 1 654 13 discriminator 1 view .LVU867
 3414 002e A042     		cmp	r0, r4
 3415 0030 EFD2     		bcs	.L250
 654:Hardware/OLED/oled.c ****                 OLED_DrawPoint(i, j, 1);
 3416              		.loc 1 654 13 discriminator 1 view .LVU868
 3417              	.LBE13:
 653:Hardware/OLED/oled.c ****             for(uint8_t j = (uint8_t)(b.y - b.r); j <= (uint8_t)(b.y + b.r); j++) {
 3418              		.loc 1 653 74 is_stmt 1 discriminator 2 view .LVU869
 653:Hardware/OLED/oled.c ****             for(uint8_t j = (uint8_t)(b.y - b.r); j <= (uint8_t)(b.y + b.r); j++) {
 3419              		.loc 1 653 75 is_stmt 0 discriminator 2 view .LVU870
 3420 0032 0135     		adds	r5, r5, #1
 3421              	.LVL371:
 653:Hardware/OLED/oled.c ****             for(uint8_t j = (uint8_t)(b.y - b.r); j <= (uint8_t)(b.y + b.r); j++) {
 3422              		.loc 1 653 75 discriminator 2 view .LVU871
 3423 0034 EDB2     		uxtb	r5, r5
 3424              	.LVL372:
 3425              	.L248:
 653:Hardware/OLED/oled.c ****             for(uint8_t j = (uint8_t)(b.y - b.r); j <= (uint8_t)(b.y + b.r); j++) {
 3426              		.loc 1 653 47 is_stmt 1 discriminator 1 view .LVU872
 653:Hardware/OLED/oled.c ****             for(uint8_t j = (uint8_t)(b.y - b.r); j <= (uint8_t)(b.y + b.r); j++) {
 3427              		.loc 1 653 66 is_stmt 0 discriminator 1 view .LVU873
 3428 0036 2549     		ldr	r1, .L255+4
 3429 0038 3846     		mov	r0, r7
 3430 003a FFF7FEFF 		bl	__aeabi_fadd
 3431              	.LVL373:
 653:Hardware/OLED/oled.c ****             for(uint8_t j = (uint8_t)(b.y - b.r); j <= (uint8_t)(b.y + b.r); j++) {
ARM GAS  /tmp/ccYbGAiO.s 			page 80


 3432              		.loc 1 653 52 discriminator 1 view .LVU874
 3433 003e FFF7FEFF 		bl	__aeabi_f2uiz
 3434              	.LVL374:
 3435 0042 C0B2     		uxtb	r0, r0
 653:Hardware/OLED/oled.c ****             for(uint8_t j = (uint8_t)(b.y - b.r); j <= (uint8_t)(b.y + b.r); j++) {
 3436              		.loc 1 653 9 discriminator 1 view .LVU875
 3437 0044 A842     		cmp	r0, r5
 3438 0046 07D3     		bcc	.L254
 654:Hardware/OLED/oled.c ****                 OLED_DrawPoint(i, j, 1);
 3439              		.loc 1 654 13 is_stmt 1 view .LVU876
 3440              	.LBB14:
 654:Hardware/OLED/oled.c ****                 OLED_DrawPoint(i, j, 1);
 3441              		.loc 1 654 17 view .LVU877
 654:Hardware/OLED/oled.c ****                 OLED_DrawPoint(i, j, 1);
 3442              		.loc 1 654 43 is_stmt 0 view .LVU878
 3443 0048 2049     		ldr	r1, .L255+4
 3444 004a 3046     		mov	r0, r6
 3445 004c FFF7FEFF 		bl	__aeabi_fsub
 3446              	.LVL375:
 654:Hardware/OLED/oled.c ****                 OLED_DrawPoint(i, j, 1);
 3447              		.loc 1 654 25 view .LVU879
 3448 0050 FFF7FEFF 		bl	__aeabi_f2uiz
 3449              	.LVL376:
 3450 0054 C4B2     		uxtb	r4, r0
 3451              	.LVL377:
 654:Hardware/OLED/oled.c ****                 OLED_DrawPoint(i, j, 1);
 3452              		.loc 1 654 13 view .LVU880
 3453 0056 E3E7     		b	.L249
 3454              	.LVL378:
 3455              	.L254:
 654:Hardware/OLED/oled.c ****                 OLED_DrawPoint(i, j, 1);
 3456              		.loc 1 654 13 view .LVU881
 3457              	.LBE14:
 3458              	.LBE12:
 656:Hardware/OLED/oled.c ****             }
 657:Hardware/OLED/oled.c ****         }
 658:Hardware/OLED/oled.c ****         OLED_Refresh();
 3459              		.loc 1 658 9 is_stmt 1 view .LVU882
 3460 0058 FFF7FEFF 		bl	OLED_Refresh
 3461              	.LVL379:
 659:Hardware/OLED/oled.c ****         HAL_Delay(20); // з§»жӨҚж—¶и§ЈејҖиҝҷйҮҢзҡ„жіЁйҮҠ
 3462              		.loc 1 659 9 view .LVU883
 3463 005c 1420     		movs	r0, #20
 3464 005e FFF7FEFF 		bl	HAL_Delay
 3465              	.LVL380:
 643:Hardware/OLED/oled.c ****         OLED_Clear(1); // жҜҸдёҖеё§е…Ҳжё…з©ә
 3466              		.loc 1 643 10 view .LVU884
 3467              	.L252:
 643:Hardware/OLED/oled.c ****         OLED_Clear(1); // жҜҸдёҖеё§е…Ҳжё…з©ә
 3468              		.loc 1 643 5 view .LVU885
 644:Hardware/OLED/oled.c ****         
 3469              		.loc 1 644 9 view .LVU886
 3470 0062 0120     		movs	r0, #1
 3471 0064 FFF7FEFF 		bl	OLED_Clear
 3472              	.LVL381:
 646:Hardware/OLED/oled.c ****         
 3473              		.loc 1 646 9 view .LVU887
ARM GAS  /tmp/ccYbGAiO.s 			page 81


 646:Hardware/OLED/oled.c ****         
 3474              		.loc 1 646 17 is_stmt 0 view .LVU888
 3475 0068 039D     		ldr	r5, [sp, #12]	@ float
 646:Hardware/OLED/oled.c ****         
 3476              		.loc 1 646 13 view .LVU889
 3477 006a 0199     		ldr	r1, [sp, #4]	@ float
 3478 006c 2846     		mov	r0, r5
 3479 006e FFF7FEFF 		bl	__aeabi_fadd
 3480              	.LVL382:
 3481 0072 0746     		mov	r7, r0
 3482 0074 0190     		str	r0, [sp, #4]	@ float
 646:Hardware/OLED/oled.c ****         
 3483              		.loc 1 646 22 is_stmt 1 view .LVU890
 646:Hardware/OLED/oled.c ****         
 3484              		.loc 1 646 30 is_stmt 0 view .LVU891
 3485 0076 049C     		ldr	r4, [sp, #16]	@ float
 646:Hardware/OLED/oled.c ****         
 3486              		.loc 1 646 26 view .LVU892
 3487 0078 0299     		ldr	r1, [sp, #8]	@ float
 3488 007a 2046     		mov	r0, r4
 3489 007c FFF7FEFF 		bl	__aeabi_fadd
 3490              	.LVL383:
 3491 0080 0646     		mov	r6, r0
 3492 0082 0290     		str	r0, [sp, #8]	@ float
 649:Hardware/OLED/oled.c ****         if (b.y <= b.r || b.y >= 63 - b.r)  b.vy = -b.vy;
 3493              		.loc 1 649 9 is_stmt 1 view .LVU893
 649:Hardware/OLED/oled.c ****         if (b.y <= b.r || b.y >= 63 - b.r)  b.vy = -b.vy;
 3494              		.loc 1 649 12 is_stmt 0 view .LVU894
 3495 0084 1149     		ldr	r1, .L255+4
 3496 0086 3846     		mov	r0, r7
 3497 0088 FFF7FEFF 		bl	__aeabi_fcmple
 3498              	.LVL384:
 3499 008c 20B9     		cbnz	r0, .L242
 649:Hardware/OLED/oled.c ****         if (b.y <= b.r || b.y >= 63 - b.r)  b.vy = -b.vy;
 3500              		.loc 1 649 24 discriminator 2 view .LVU895
 3501 008e 1049     		ldr	r1, .L255+8
 3502 0090 3846     		mov	r0, r7
 3503 0092 FFF7FEFF 		bl	__aeabi_fcmpge
 3504              	.LVL385:
 3505 0096 10B1     		cbz	r0, .L243
 3506              	.L242:
 649:Hardware/OLED/oled.c ****         if (b.y <= b.r || b.y >= 63 - b.r)  b.vy = -b.vy;
 3507              		.loc 1 649 45 is_stmt 1 discriminator 3 view .LVU896
 649:Hardware/OLED/oled.c ****         if (b.y <= b.r || b.y >= 63 - b.r)  b.vy = -b.vy;
 3508              		.loc 1 649 52 is_stmt 0 discriminator 3 view .LVU897
 3509 0098 05F10045 		add	r5, r5, #-2147483648
 649:Hardware/OLED/oled.c ****         if (b.y <= b.r || b.y >= 63 - b.r)  b.vy = -b.vy;
 3510              		.loc 1 649 50 discriminator 3 view .LVU898
 3511 009c 0395     		str	r5, [sp, #12]	@ float
 3512              	.L243:
 650:Hardware/OLED/oled.c **** 
 3513              		.loc 1 650 9 is_stmt 1 view .LVU899
 650:Hardware/OLED/oled.c **** 
 3514              		.loc 1 650 12 is_stmt 0 view .LVU900
 3515 009e 0B49     		ldr	r1, .L255+4
 3516 00a0 3046     		mov	r0, r6
 3517 00a2 FFF7FEFF 		bl	__aeabi_fcmple
ARM GAS  /tmp/ccYbGAiO.s 			page 82


 3518              	.LVL386:
 3519 00a6 20B9     		cbnz	r0, .L245
 650:Hardware/OLED/oled.c **** 
 3520              		.loc 1 650 24 discriminator 2 view .LVU901
 3521 00a8 0A49     		ldr	r1, .L255+12
 3522 00aa 3046     		mov	r0, r6
 3523 00ac FFF7FEFF 		bl	__aeabi_fcmpge
 3524              	.LVL387:
 3525 00b0 10B1     		cbz	r0, .L246
 3526              	.L245:
 650:Hardware/OLED/oled.c **** 
 3527              		.loc 1 650 45 is_stmt 1 discriminator 3 view .LVU902
 650:Hardware/OLED/oled.c **** 
 3528              		.loc 1 650 52 is_stmt 0 discriminator 3 view .LVU903
 3529 00b2 04F10044 		add	r4, r4, #-2147483648
 650:Hardware/OLED/oled.c **** 
 3530              		.loc 1 650 50 discriminator 3 view .LVU904
 3531 00b6 0494     		str	r4, [sp, #16]	@ float
 3532              	.L246:
 653:Hardware/OLED/oled.c ****             for(uint8_t j = (uint8_t)(b.y - b.r); j <= (uint8_t)(b.y + b.r); j++) {
 3533              		.loc 1 653 9 is_stmt 1 view .LVU905
 3534              	.LBB15:
 653:Hardware/OLED/oled.c ****             for(uint8_t j = (uint8_t)(b.y - b.r); j <= (uint8_t)(b.y + b.r); j++) {
 3535              		.loc 1 653 13 view .LVU906
 653:Hardware/OLED/oled.c ****             for(uint8_t j = (uint8_t)(b.y - b.r); j <= (uint8_t)(b.y + b.r); j++) {
 3536              		.loc 1 653 39 is_stmt 0 view .LVU907
 3537 00b8 0449     		ldr	r1, .L255+4
 3538 00ba 3846     		mov	r0, r7
 3539 00bc FFF7FEFF 		bl	__aeabi_fsub
 3540              	.LVL388:
 653:Hardware/OLED/oled.c ****             for(uint8_t j = (uint8_t)(b.y - b.r); j <= (uint8_t)(b.y + b.r); j++) {
 3541              		.loc 1 653 21 view .LVU908
 3542 00c0 FFF7FEFF 		bl	__aeabi_f2uiz
 3543              	.LVL389:
 3544 00c4 C5B2     		uxtb	r5, r0
 3545              	.LVL390:
 653:Hardware/OLED/oled.c ****             for(uint8_t j = (uint8_t)(b.y - b.r); j <= (uint8_t)(b.y + b.r); j++) {
 3546              		.loc 1 653 9 view .LVU909
 3547 00c6 B6E7     		b	.L248
 3548              	.L256:
 3549              		.align	2
 3550              	.L255:
 3551 00c8 24000000 		.word	.LANCHOR4+36
 3552 00cc 00004040 		.word	1077936128
 3553 00d0 0000F842 		.word	1123549184
 3554 00d4 00007042 		.word	1114636288
 3555              	.LBE15:
 3556              		.cfi_endproc
 3557              	.LFE92:
 3559              		.global	OLED_GRAM
 3560              		.global	Hz_16X16
 3561              		.global	Font_Num_6X16
 3562              		.global	Font_Num_5X8
 3563              		.global	F8X16
 3564              		.global	F6X8
 3565              		.section	.rodata
 3566              		.align	2
ARM GAS  /tmp/ccYbGAiO.s 			page 83


 3567              		.set	.LANCHOR4,. + 0
 3568              	.LC1:
 3569 0000 AEAEAEAE 		.ascii	"\256\256\256\256\256\256\000\020\260@\201\377\246\250"
 3569      AEAE0010 
 3569      B04081FF 
 3569      A6A8
 3570 000e 3FA1C8D3 		.ascii	"?\241\310\323\000\325\200\330\005\331\361\332\022\333"
 3570      00D580D8 
 3570      05D9F1DA 
 3570      12DB
 3571 001c 308D1420 		.ascii	"0\215\024 \000\257"
 3571      00AF
 3572 0022 0000     		.space	2
 3573              	.LC0:
 3574 0024 00008042 		.word	1115684864
 3575 0028 00000042 		.word	1107296256
 3576 002c 00002040 		.word	1075838976
 3577 0030 0000C03F 		.word	1069547520
 3578 0034 03       		.byte	3
 3579 0035 000000   		.space	3
 3580              		.section	.bss.OLED_GRAM,"aw",%nobits
 3581              		.align	2
 3582              		.set	.LANCHOR1,. + 0
 3585              	OLED_GRAM:
 3586 0000 00000000 		.space	1024
 3586      00000000 
 3586      00000000 
 3586      00000000 
 3586      00000000 
 3587              		.section	.bss.g_oled_i2c,"aw",%nobits
 3588              		.align	2
 3589              		.set	.LANCHOR3,. + 0
 3592              	g_oled_i2c:
 3593 0000 00000000 		.space	4
 3594              		.section	.data.Hz_16X16,"aw"
 3595              		.align	2
 3596              		.set	.LANCHOR7,. + 0
 3599              	Hz_16X16:
 3600 0000 001090FE 		.ascii	"\000\020\220\376\220\020Bb\322JJ\306B\300\000\000\000"
 3600      90104262 
 3600      D24A4AC6 
 3600      42C00000 
 3600      00
 3601 0011 02017F00 		.ascii	"\002\001\177\000\011D#\020\010\006A@?\000\000"
 3601      09442310 
 3601      08064140 
 3601      3F0000
 3602 0020 002020FE 		.ascii	"\000  \376 \370\212\254\210\370\210\254\212\370\000"
 3602      20F88AAC 
 3602      88F888AC 
 3602      8AF800
 3603 002f 00001010 		.ascii	"\000\000\020\020\017\010\000~*****~\000\000\000"
 3603      0F08007E 
 3603      2A2A2A2A 
 3603      2A7E0000 
 3603      00
 3604 0040 00404048 		.ascii	"\000@@HHHH~HHHH@@\000\000\000@DD?$$@DD\177DD@\000\000"
ARM GAS  /tmp/ccYbGAiO.s 			page 84


 3604      4848487E 
 3604      48484848 
 3604      40400000 
 3604      00404444 
 3605              		.section	.rodata.F6X8,"a"
 3606              		.align	2
 3607              		.set	.LANCHOR6,. + 0
 3610              	F6X8:
 3611 0000 00000000 		.ascii	"\000\000\000\000\000\000"
 3611      0000
 3612 0006 0000002F 		.ascii	"\000\000\000/\000\000"
 3612      0000
 3613 000c 00000700 		.ascii	"\000\000\007\000\007\000"
 3613      0700
 3614 0012 00147F14 		.ascii	"\000\024\177\024\177\024"
 3614      7F14
 3615 0018 00242A7F 		.ascii	"\000$*\177*\022"
 3615      2A12
 3616 001e 00626408 		.ascii	"\000bd\010\023#"
 3616      1323
 3617 0024 00364955 		.ascii	"\0006IU\"P"
 3617      2250
 3618 002a 00000503 		.ascii	"\000\000\005\003\000\000"
 3618      0000
 3619 0030 00001C22 		.ascii	"\000\000\034\"A\000"
 3619      4100
 3620 0036 00004122 		.ascii	"\000\000A\"\034\000"
 3620      1C00
 3621 003c 0014083E 		.ascii	"\000\024\010>\010\024"
 3621      0814
 3622 0042 0008083E 		.ascii	"\000\010\010>\010\010"
 3622      0808
 3623 0048 000000A0 		.ascii	"\000\000\000\240`\000"
 3623      6000
 3624 004e 00080808 		.ascii	"\000\010\010\010\010\010"
 3624      0808
 3625 0054 00006060 		.ascii	"\000\000``\000\000"
 3625      0000
 3626 005a 00201008 		.ascii	"\000 \020\010\004\002"
 3626      0402
 3627 0060 003E5149 		.ascii	"\000>QIE>"
 3627      453E
 3628 0066 0000427F 		.ascii	"\000\000B\177@\000"
 3628      4000
 3629 006c 00426151 		.ascii	"\000BaQIF"
 3629      4946
 3630 0072 00214145 		.ascii	"\000!AEK1"
 3630      4B31
 3631 0078 00181412 		.ascii	"\000\030\024\022\177\020"
 3631      7F10
 3632 007e 00274545 		.ascii	"\000'EEE9"
 3632      4539
 3633 0084 003C4A49 		.ascii	"\000<JII0"
 3633      4930
 3634 008a 00017109 		.ascii	"\000\001q\011\005\003"
 3634      0503
 3635 0090 00364949 		.ascii	"\0006III6"
ARM GAS  /tmp/ccYbGAiO.s 			page 85


 3635      4936
 3636 0096 00064949 		.ascii	"\000\006II)\036"
 3636      291E
 3637 009c 00003636 		.ascii	"\000\00066\000\000"
 3637      0000
 3638 00a2 00005636 		.ascii	"\000\000V6\000\000"
 3638      0000
 3639 00a8 00081422 		.ascii	"\000\010\024\"A\000"
 3639      4100
 3640 00ae 00141414 		.ascii	"\000\024\024\024\024\024"
 3640      1414
 3641 00b4 00004122 		.ascii	"\000\000A\"\024\010"
 3641      1408
 3642 00ba 00020151 		.ascii	"\000\002\001Q\011\006"
 3642      0906
 3643 00c0 00324959 		.ascii	"\0002IYQ>"
 3643      513E
 3644 00c6 007C1211 		.ascii	"\000|\022\021\022|"
 3644      127C
 3645 00cc 007F4949 		.ascii	"\000\177III6"
 3645      4936
 3646 00d2 003E4141 		.ascii	"\000>AAA\""
 3646      4122
 3647 00d8 007F4141 		.ascii	"\000\177AA\"\034"
 3647      221C
 3648 00de 007F4949 		.ascii	"\000\177IIIA"
 3648      4941
 3649 00e4 007F0909 		.ascii	"\000\177\011\011\011\001"
 3649      0901
 3650 00ea 003E4149 		.ascii	"\000>AIIz"
 3650      497A
 3651 00f0 007F0808 		.ascii	"\000\177\010\010\010\177"
 3651      087F
 3652 00f6 0000417F 		.ascii	"\000\000A\177A\000"
 3652      4100
 3653 00fc 00204041 		.ascii	"\000 @A?\001"
 3653      3F01
 3654 0102 007F0814 		.ascii	"\000\177\010\024\"A"
 3654      2241
 3655 0108 007F4040 		.ascii	"\000\177@@@@"
 3655      4040
 3656 010e 007F020C 		.ascii	"\000\177\002\014\002\177"
 3656      027F
 3657 0114 007F0408 		.ascii	"\000\177\004\010\020\177"
 3657      107F
 3658 011a 003E4141 		.ascii	"\000>AAA>"
 3658      413E
 3659 0120 007F0909 		.ascii	"\000\177\011\011\011\006"
 3659      0906
 3660 0126 003E4151 		.ascii	"\000>AQ!^"
 3660      215E
 3661 012c 007F0919 		.ascii	"\000\177\011\031)F"
 3661      2946
 3662 0132 00464949 		.ascii	"\000FIII1"
 3662      4931
 3663 0138 0001017F 		.ascii	"\000\001\001\177\001\001"
 3663      0101
ARM GAS  /tmp/ccYbGAiO.s 			page 86


 3664 013e 003F4040 		.ascii	"\000?@@@?"
 3664      403F
 3665 0144 001F2040 		.ascii	"\000\037 @ \037"
 3665      201F
 3666 014a 003F4038 		.ascii	"\000?@8@?"
 3666      403F
 3667 0150 00631408 		.ascii	"\000c\024\010\024c"
 3667      1463
 3668 0156 00070870 		.ascii	"\000\007\010p\010\007"
 3668      0807
 3669 015c 00615149 		.ascii	"\000aQIEC"
 3669      4543
 3670 0162 00007F41 		.ascii	"\000\000\177AA\000"
 3670      4100
 3671 0168 00020408 		.ascii	"\000\002\004\010\020 "
 3671      1020
 3672 016e 00004141 		.ascii	"\000\000AA\177\000"
 3672      7F00
 3673 0174 00040201 		.ascii	"\000\004\002\001\002\004"
 3673      0204
 3674 017a 00404040 		.ascii	"\000@@@@@"
 3674      4040
 3675 0180 00000102 		.ascii	"\000\000\001\002\004\000"
 3675      0400
 3676 0186 00205454 		.ascii	"\000 TTTx"
 3676      5478
 3677 018c 007F4844 		.ascii	"\000\177HDD8"
 3677      4438
 3678 0192 00384444 		.ascii	"\0008DDD "
 3678      4420
 3679 0198 00384444 		.ascii	"\0008DDH\177"
 3679      487F
 3680 019e 00385454 		.ascii	"\0008TTT\030"
 3680      5418
 3681 01a4 00087E09 		.ascii	"\000\010~\011\001\002"
 3681      0102
 3682 01aa 0018A4A4 		.ascii	"\000\030\244\244\244|"
 3682      A47C
 3683 01b0 007F0804 		.ascii	"\000\177\010\004\004x"
 3683      0478
 3684 01b6 0000447D 		.ascii	"\000\000D}@\000"
 3684      4000
 3685 01bc 00408084 		.ascii	"\000@\200\204}\000"
 3685      7D00
 3686 01c2 007F1028 		.ascii	"\000\177\020(D\000"
 3686      4400
 3687 01c8 0000417F 		.ascii	"\000\000A\177@\000"
 3687      4000
 3688 01ce 007C0418 		.ascii	"\000|\004\030\004x"
 3688      0478
 3689 01d4 007C0804 		.ascii	"\000|\010\004\004x"
 3689      0478
 3690 01da 00384444 		.ascii	"\0008DDD8"
 3690      4438
 3691 01e0 00FC2424 		.ascii	"\000\374$$$\030"
 3691      2418
 3692 01e6 00182424 		.ascii	"\000\030$$\030\374"
ARM GAS  /tmp/ccYbGAiO.s 			page 87


 3692      18FC
 3693 01ec 007C0804 		.ascii	"\000|\010\004\004\010"
 3693      0408
 3694 01f2 00485454 		.ascii	"\000HTTT "
 3694      5420
 3695 01f8 00043F44 		.ascii	"\000\004?D@ "
 3695      4020
 3696 01fe 003C4040 		.ascii	"\000<@@ |"
 3696      207C
 3697 0204 001C2040 		.ascii	"\000\034 @ \034"
 3697      201C
 3698 020a 003C4030 		.ascii	"\000<@0@<"
 3698      403C
 3699 0210 00442810 		.ascii	"\000D(\020(D"
 3699      2844
 3700 0216 001CA0A0 		.ascii	"\000\034\240\240\240|"
 3700      A07C
 3701 021c 00446454 		.ascii	"\000DdTLD"
 3701      4C44
 3702 0222 00083641 		.ascii	"\000\0106A\000\000"
 3702      0000
 3703 0228 00007F00 		.ascii	"\000\000\177\000\000\000"
 3703      0000
 3704 022e 00413608 		.ascii	"\000A6\010\000\000"
 3704      0000
 3705 0234 00080810 		.ascii	"\000\010\010\020\020\000"
 3705      1000
 3706              		.section	.rodata.F8X16,"a"
 3707              		.align	2
 3708              		.set	.LANCHOR5,. + 0
 3711              	F8X16:
 3712 0000 00000000 		.ascii	"\000\000\000\000\000\000\000\000\000\000\000\000\000"
 3712      00000000 
 3712      00000000 
 3712      00
 3713 000d 000000   		.ascii	"\000\000\000"
 3714 0010 000000F8 		.ascii	"\000\000\000\370\000\000\000\000\000\000\00030\000\000"
 3714      00000000 
 3714      00000033 
 3714      300000
 3715 001f 00       		.ascii	"\000"
 3716 0020 00100C06 		.ascii	"\000\020\014\006\020\014\006\000\000\000\000\000\000"
 3716      100C0600 
 3716      00000000 
 3716      00
 3717 002d 000000   		.ascii	"\000\000\000"
 3718 0030 40C07840 		.ascii	"@\300x@\300x@\000\004?\004\004?\004\004\000"
 3718      C0784000 
 3718      043F0404 
 3718      3F040400 
 3719 0040 007088FC 		.ascii	"\000p\210\374\0100\000\000\000\030 \377!\036\000\000"
 3719      08300000 
 3719      001820FF 
 3719      211E0000 
 3720 0050 F008F000 		.ascii	"\360\010\360\000\340\030\000\000\000!\034\003\036!\036"
 3720      E0180000 
 3720      00211C03 
ARM GAS  /tmp/ccYbGAiO.s 			page 88


 3720      1E211E
 3721 005f 00       		.ascii	"\000"
 3722 0060 00F00888 		.ascii	"\000\360\010\210p\000\000\000\036!#$\031'!\020"
 3722      70000000 
 3722      1E212324 
 3722      19272110 
 3723 0070 10160E00 		.ascii	"\020\026\016\000\000\000\000\000\000\000\000\000\000"
 3723      00000000 
 3723      00000000 
 3723      00
 3724 007d 000000   		.ascii	"\000\000\000"
 3725 0080 000000E0 		.ascii	"\000\000\000\340\030\004\002\000\000\000\000\007\030"
 3725      18040200 
 3725      00000007 
 3725      18
 3726 008d 204000   		.ascii	" @\000"
 3727 0090 00020418 		.ascii	"\000\002\004\030\340\000\000\000\000@ \030\007\000\000"
 3727      E0000000 
 3727      00402018 
 3727      070000
 3728 009f 00       		.ascii	"\000"
 3729 00a0 404080F0 		.ascii	"@@\200\360\200@@\000\002\002\001\017\001\002\002\000"
 3729      80404000 
 3729      0202010F 
 3729      01020200 
 3730 00b0 000000F0 		.ascii	"\000\000\000\360\000\000\000\000\001\001\001\037\001"
 3730      00000000 
 3730      0101011F 
 3730      01
 3731 00bd 010100   		.ascii	"\001\001\000"
 3732 00c0 00000000 		.ascii	"\000\000\000\000\000\000\000\000\200\260p\000\000\000"
 3732      00000000 
 3732      80B07000 
 3732      0000
 3733 00ce 0000     		.ascii	"\000\000"
 3734 00d0 00000000 		.ascii	"\000\000\000\000\000\000\000\000\000\001\001\001\001"
 3734      00000000 
 3734      00010101 
 3734      01
 3735 00dd 010101   		.ascii	"\001\001\001"
 3736 00e0 00000000 		.ascii	"\000\000\000\000\000\000\000\000\00000\000\000\000\000"
 3736      00000000 
 3736      00303000 
 3736      000000
 3737 00ef 00       		.ascii	"\000"
 3738 00f0 00000000 		.ascii	"\000\000\000\000\200`\030\004\000`\030\006\001\000\000"
 3738      80601804 
 3738      00601806 
 3738      010000
 3739 00ff 00       		.ascii	"\000"
 3740 0100 00E01008 		.ascii	"\000\340\020\010\010\020\340\000\000\017\020  \020\017"
 3740      0810E000 
 3740      000F1020 
 3740      20100F
 3741 010f 00       		.ascii	"\000"
 3742 0110 001010F8 		.ascii	"\000\020\020\370\000\000\000\000\000  ?  \000\000"
 3742      00000000 
ARM GAS  /tmp/ccYbGAiO.s 			page 89


 3742      0020203F 
 3742      20200000 
 3743 0120 00700808 		.ascii	"\000p\010\010\010\210p\000\0000($\"!0\000"
 3743      08887000 
 3743      00302824 
 3743      22213000 
 3744 0130 00300888 		.ascii	"\0000\010\210\210H0\000\000\030   \021\016\000"
 3744      88483000 
 3744      00182020 
 3744      20110E00 
 3745 0140 0000C020 		.ascii	"\000\000\300 \020\370\000\000\000\007\004$$?$\000"
 3745      10F80000 
 3745      00070424 
 3745      243F2400 
 3746 0150 00F80888 		.ascii	"\000\370\010\210\210\010\010\000\000\031!  \021\016"
 3746      88080800 
 3746      00192120 
 3746      20110E
 3747 015f 00       		.ascii	"\000"
 3748 0160 00E01088 		.ascii	"\000\340\020\210\210\030\000\000\000\017\021  \021\016"
 3748      88180000 
 3748      000F1120 
 3748      20110E
 3749 016f 00       		.ascii	"\000"
 3750 0170 00380808 		.ascii	"\0008\010\010\3108\010\000\000\000\000?\000\000\000"
 3750      C8380800 
 3750      0000003F 
 3750      000000
 3751 017f 00       		.ascii	"\000"
 3752 0180 00708808 		.ascii	"\000p\210\010\010\210p\000\000\034\"!!\"\034\000"
 3752      08887000 
 3752      001C2221 
 3752      21221C00 
 3753 0190 00E01008 		.ascii	"\000\340\020\010\010\020\340\000\000\0001\"\"\021\017"
 3753      0810E000 
 3753      00003122 
 3753      22110F
 3754 019f 00       		.ascii	"\000"
 3755 01a0 000000C0 		.ascii	"\000\000\000\300\300\000\000\000\000\000\00000\000\000"
 3755      C0000000 
 3755      00000030 
 3755      300000
 3756 01af 00       		.ascii	"\000"
 3757 01b0 00000080 		.ascii	"\000\000\000\200\000\000\000\000\000\000\200`\000\000"
 3757      00000000 
 3757      00008060 
 3757      0000
 3758 01be 0000     		.ascii	"\000\000"
 3759 01c0 00008040 		.ascii	"\000\000\200@ \020\010\000\000\001\002\004\010\020 "
 3759      20100800 
 3759      00010204 
 3759      081020
 3760 01cf 00       		.ascii	"\000"
 3761 01d0 40404040 		.ascii	"@@@@@@@\000\004\004\004\004\004\004\004\000"
 3761      40404000 
 3761      04040404 
 3761      04040400 
ARM GAS  /tmp/ccYbGAiO.s 			page 90


 3762 01e0 00081020 		.ascii	"\000\010\020 @\200\000\000\000 \020\010\004\002\001"
 3762      40800000 
 3762      00201008 
 3762      040201
 3763 01ef 00       		.ascii	"\000"
 3764 01f0 00704808 		.ascii	"\000pH\010\010\010\360\000\000\000\00006\001\000\000"
 3764      0808F000 
 3764      00000030 
 3764      36010000 
 3765 0200 C030C828 		.ascii	"\3000\310(\350\020\340\000\007\030'$#\024\013\000"
 3765      E810E000 
 3765      07182724 
 3765      23140B00 
 3766 0210 0000C038 		.ascii	"\000\000\3008\340\000\000\000 <#\002\002'8 "
 3766      E0000000 
 3766      203C2302 
 3766      02273820 
 3767 0220 08F88888 		.ascii	"\010\370\210\210\210p\000\000 ?   \021\016\000"
 3767      88700000 
 3767      203F2020 
 3767      20110E00 
 3768 0230 C0300808 		.ascii	"\3000\010\010\010\0108\000\007\030   \020\010\000"
 3768      08083800 
 3768      07182020 
 3768      20100800 
 3769 0240 08F80808 		.ascii	"\010\370\010\010\010\020\340\000 ?   \020\017\000"
 3769      0810E000 
 3769      203F2020 
 3769      20100F00 
 3770 0250 08F88888 		.ascii	"\010\370\210\210\350\010\020\000 ?  # \030\000"
 3770      E8081000 
 3770      203F2020 
 3770      23201800 
 3771 0260 08F88888 		.ascii	"\010\370\210\210\350\010\020\000 ? \000\003\000\000"
 3771      E8081000 
 3771      203F2000 
 3771      030000
 3772 026f 00       		.ascii	"\000"
 3773 0270 C0300808 		.ascii	"\3000\010\010\0108\000\000\007\030  \"\036\002\000"
 3773      08380000 
 3773      07182020 
 3773      221E0200 
 3774 0280 08F80800 		.ascii	"\010\370\010\000\000\010\370\010 ?!\001\001!? "
 3774      0008F808 
 3774      203F2101 
 3774      01213F20 
 3775 0290 000808F8 		.ascii	"\000\010\010\370\010\010\000\000\000  ?  \000\000"
 3775      08080000 
 3775      0020203F 
 3775      20200000 
 3776 02a0 00000808 		.ascii	"\000\000\010\010\370\010\010\000\300\200\200\200\177"
 3776      F8080800 
 3776      C0808080 
 3776      7F
 3777 02ad 000000   		.ascii	"\000\000\000"
 3778 02b0 08F888C0 		.ascii	"\010\370\210\300(\030\010\000 ? \001&8 \000"
 3778      28180800 
ARM GAS  /tmp/ccYbGAiO.s 			page 91


 3778      203F2001 
 3778      26382000 
 3779 02c0 08F80800 		.ascii	"\010\370\010\000\000\000\000\000 ?    0\000"
 3779      00000000 
 3779      203F2020 
 3779      20203000 
 3780 02d0 08F8F800 		.ascii	"\010\370\370\000\370\370\010\000 ?\000?\000? \000"
 3780      F8F80800 
 3780      203F003F 
 3780      003F2000 
 3781 02e0 08F830C0 		.ascii	"\010\3700\300\000\010\370\010 ? \000\007\030?\000"
 3781      0008F808 
 3781      203F2000 
 3781      07183F00 
 3782 02f0 E0100808 		.ascii	"\340\020\010\010\010\020\340\000\017\020   \020\017"
 3782      0810E000 
 3782      0F102020 
 3782      20100F
 3783 02ff 00       		.ascii	"\000"
 3784 0300 08F80808 		.ascii	"\010\370\010\010\010\010\360\000 ?!\001\001\001\000"
 3784      0808F000 
 3784      203F2101 
 3784      010100
 3785 030f 00       		.ascii	"\000"
 3786 0310 E0100808 		.ascii	"\340\020\010\010\010\020\340\000\017\030$$8PO\000"
 3786      0810E000 
 3786      0F182424 
 3786      38504F00 
 3787 0320 08F88888 		.ascii	"\010\370\210\210\210\210p\000 ? \000\003\0140 "
 3787      88887000 
 3787      203F2000 
 3787      030C3020 
 3788 0330 00708808 		.ascii	"\000p\210\010\010\0108\000\0008 !!\"\034\000"
 3788      08083800 
 3788      00382021 
 3788      21221C00 
 3789 0340 180808F8 		.ascii	"\030\010\010\370\010\010\030\000\000\000 ? \000\000"
 3789      08081800 
 3789      0000203F 
 3789      200000
 3790 034f 00       		.ascii	"\000"
 3791 0350 08F80800 		.ascii	"\010\370\010\000\000\010\370\010\000\037    \037\000"
 3791      0008F808 
 3791      001F2020 
 3791      20201F00 
 3792 0360 08788800 		.ascii	"\010x\210\000\000\3108\010\000\000\0078\016\001\000"
 3792      00C83808 
 3792      00000738 
 3792      0E0100
 3793 036f 00       		.ascii	"\000"
 3794 0370 F80800F8 		.ascii	"\370\010\000\370\000\010\370\000\003<\007\000\007<\003"
 3794      0008F800 
 3794      033C0700 
 3794      073C03
 3795 037f 00       		.ascii	"\000"
 3796 0380 08186880 		.ascii	"\010\030h\200\200h\030\010 0,\003\003,0 "
 3796      80681808 
ARM GAS  /tmp/ccYbGAiO.s 			page 92


 3796      20302C03 
 3796      032C3020 
 3797 0390 0838C800 		.ascii	"\0108\310\000\3108\010\000\000\000 ? \000\000\000"
 3797      C8380800 
 3797      0000203F 
 3797      20000000 
 3798 03a0 10080808 		.ascii	"\020\010\010\010\3108\010\000 8&!  \030\000"
 3798      C8380800 
 3798      20382621 
 3798      20201800 
 3799 03b0 000000FE 		.ascii	"\000\000\000\376\002\002\002\000\000\000\000\177@@@"
 3799      02020200 
 3799      0000007F 
 3799      404040
 3800 03bf 00       		.ascii	"\000"
 3801 03c0 000C30C0 		.ascii	"\000\0140\300\000\000\000\000\000\000\000\001\0068\300"
 3801      00000000 
 3801      00000001 
 3801      0638C0
 3802 03cf 00       		.ascii	"\000"
 3803 03d0 00020202 		.ascii	"\000\002\002\002\376\000\000\000\000@@@\177\000\000"
 3803      FE000000 
 3803      00404040 
 3803      7F0000
 3804 03df 00       		.ascii	"\000"
 3805 03e0 00000402 		.ascii	"\000\000\004\002\002\002\004\000\000\000\000\000\000"
 3805      02020400 
 3805      00000000 
 3805      00
 3806 03ed 000000   		.ascii	"\000\000\000"
 3807 03f0 00000000 		.ascii	"\000\000\000\000\000\000\000\000\200\200\200\200\200"
 3807      00000000 
 3807      80808080 
 3807      80
 3808 03fd 808080   		.ascii	"\200\200\200"
 3809 0400 00020204 		.ascii	"\000\002\002\004\000\000\000\000\000\000\000\000\000"
 3809      00000000 
 3809      00000000 
 3809      00
 3810 040d 000000   		.ascii	"\000\000\000"
 3811 0410 00008080 		.ascii	"\000\000\200\200\200\200\000\000\000\031$\"\"\"? "
 3811      80800000 
 3811      00192422 
 3811      22223F20 
 3812 0420 08F80080 		.ascii	"\010\370\000\200\200\000\000\000\000?\021  \021\016"
 3812      80000000 
 3812      003F1120 
 3812      20110E
 3813 042f 00       		.ascii	"\000"
 3814 0430 00000080 		.ascii	"\000\000\000\200\200\200\000\000\000\016\021   \021"
 3814      80800000 
 3814      000E1120 
 3814      202011
 3815 043f 00       		.ascii	"\000"
 3816 0440 00000080 		.ascii	"\000\000\000\200\200\210\370\000\000\016\021  \020?"
 3816      8088F800 
 3816      000E1120 
ARM GAS  /tmp/ccYbGAiO.s 			page 93


 3816      20103F
 3817 044f 20       		.ascii	" "
 3818 0450 00008080 		.ascii	"\000\000\200\200\200\200\000\000\000\037\"\"\"\"\023"
 3818      80800000 
 3818      001F2222 
 3818      222213
 3819 045f 00       		.ascii	"\000"
 3820 0460 008080F0 		.ascii	"\000\200\200\360\210\210\210\030\000  ?  \000\000"
 3820      88888818 
 3820      0020203F 
 3820      20200000 
 3821 0470 00008080 		.ascii	"\000\000\200\200\200\200\200\000\000k\224\224\224\223"
 3821      80808000 
 3821      006B9494 
 3821      9493
 3822 047e 6000     		.ascii	"`\000"
 3823 0480 08F80080 		.ascii	"\010\370\000\200\200\200\000\000 ?!\000\000 ? "
 3823      80800000 
 3823      203F2100 
 3823      00203F20 
 3824 0490 00809898 		.ascii	"\000\200\230\230\000\000\000\000\000  ?  \000\000"
 3824      00000000 
 3824      0020203F 
 3824      20200000 
 3825 04a0 00000080 		.ascii	"\000\000\000\200\230\230\000\000\000\300\200\200\200"
 3825      98980000 
 3825      00C08080 
 3825      80
 3826 04ad 7F0000   		.ascii	"\177\000\000"
 3827 04b0 08F80000 		.ascii	"\010\370\000\000\200\200\200\000 ?$\002-0 \000"
 3827      80808000 
 3827      203F2402 
 3827      2D302000 
 3828 04c0 000808F8 		.ascii	"\000\010\010\370\000\000\000\000\000  ?  \000\000"
 3828      00000000 
 3828      0020203F 
 3828      20200000 
 3829 04d0 80808080 		.ascii	"\200\200\200\200\200\200\200\000 ? \000? \000?"
 3829      80808000 
 3829      203F2000 
 3829      3F20003F 
 3830 04e0 80800080 		.ascii	"\200\200\000\200\200\200\000\000 ?!\000\000 ? "
 3830      80800000 
 3830      203F2100 
 3830      00203F20 
 3831 04f0 00008080 		.ascii	"\000\000\200\200\200\200\000\000\000\037    \037\000"
 3831      80800000 
 3831      001F2020 
 3831      20201F00 
 3832 0500 80800080 		.ascii	"\200\200\000\200\200\000\000\000\200\377\241  \021\016"
 3832      80000000 
 3832      80FFA120 
 3832      20110E
 3833 050f 00       		.ascii	"\000"
 3834 0510 00000080 		.ascii	"\000\000\000\200\200\200\200\000\000\016\021  \240\377"
 3834      80808000 
 3834      000E1120 
ARM GAS  /tmp/ccYbGAiO.s 			page 94


 3834      20A0FF
 3835 051f 80       		.ascii	"\200"
 3836 0520 80808000 		.ascii	"\200\200\200\000\200\200\200\000  ?! \000\001\000"
 3836      80808000 
 3836      20203F21 
 3836      20000100 
 3837 0530 00008080 		.ascii	"\000\000\200\200\200\200\200\000\0003$$$$\031\000"
 3837      80808000 
 3837      00332424 
 3837      24241900 
 3838 0540 008080E0 		.ascii	"\000\200\200\340\200\200\000\000\000\000\000\037  \000"
 3838      80800000 
 3838      0000001F 
 3838      202000
 3839 054f 00       		.ascii	"\000"
 3840 0550 80800000 		.ascii	"\200\200\000\000\000\200\200\000\000\037   \020? "
 3840      00808000 
 3840      001F2020 
 3840      20103F20 
 3841 0560 80808000 		.ascii	"\200\200\200\000\000\200\200\200\000\001\0160\010\006"
 3841      00808080 
 3841      00010E30 
 3841      0806
 3842 056e 0100     		.ascii	"\001\000"
 3843 0570 80800080 		.ascii	"\200\200\000\200\000\200\200\200\0170\014\003\0140\017"
 3843      00808080 
 3843      0F300C03 
 3843      0C300F
 3844 057f 00       		.ascii	"\000"
 3845 0580 00808000 		.ascii	"\000\200\200\000\200\200\200\000\000 1.\0161 \000"
 3845      80808000 
 3845      0020312E 
 3845      0E312000 
 3846 0590 80808000 		.ascii	"\200\200\200\000\000\200\200\200\200\201\216p\030\006"
 3846      00808080 
 3846      80818E70 
 3846      1806
 3847 059e 0100     		.ascii	"\001\000"
 3848 05a0 00808080 		.ascii	"\000\200\200\200\200\200\200\000\000!0,\"!0\000"
 3848      80808000 
 3848      0021302C 
 3848      22213000 
 3849 05b0 00000000 		.ascii	"\000\000\000\000\200|\002\002\000\000\000\000\000?@"
 3849      807C0202 
 3849      00000000 
 3849      003F40
 3850 05bf 40       		.ascii	"@"
 3851 05c0 00000000 		.ascii	"\000\000\000\000\377\000\000\000\000\000\000\000\377"
 3851      FF000000 
 3851      00000000 
 3851      FF
 3852 05cd 000000   		.ascii	"\000\000\000"
 3853 05d0 0002027C 		.ascii	"\000\002\002|\200\000\000\000\000@@?\000\000\000\000"
 3853      80000000 
 3853      0040403F 
 3853      00000000 
 3854 05e0 00804080 		.ascii	"\000\200@\200\200\000\200\000\000\000\000\000\000\001"
ARM GAS  /tmp/ccYbGAiO.s 			page 95


 3854      80008000 
 3854      00000000 
 3854      0001
 3855 05ee 0000     		.ascii	"\000\000"
 3856              		.section	.rodata.Font_Num_5X8,"a"
 3857              		.align	2
 3858              		.set	.LANCHOR2,. + 0
 3861              	Font_Num_5X8:
 3862 0000 007C8282 		.ascii	"\000|\202\202|"
 3862      7C
 3863 0005 0084FE80 		.ascii	"\000\204\376\200\000"
 3863      00
 3864 000a 00C4A292 		.ascii	"\000\304\242\222\214"
 3864      8C
 3865 000f 00449292 		.ascii	"\000D\222\222l"
 3865      6C
 3866 0014 00704CFE 		.ascii	"\000pL\376@"
 3866      40
 3867 0019 009E9292 		.ascii	"\000\236\222\222b"
 3867      62
 3868 001e 007C9292 		.ascii	"\000|\222\222d"
 3868      64
 3869 0023 0006E212 		.ascii	"\000\006\342\022\016"
 3869      0E
 3870 0028 006C9292 		.ascii	"\000l\222\222l"
 3870      6C
 3871 002d 004C9292 		.ascii	"\000L\222\222|"
 3871      7C
 3872 0032 00004000 		.ascii	"\000\000@\000\000"
 3872      00
 3873 0037 00107C10 		.ascii	"\000\020|\020\000"
 3873      00
 3874 003c 00101010 		.ascii	"\000\020\020\020\000"
 3874      00
 3875              		.section	.rodata.Font_Num_6X16,"a"
 3876              		.align	2
 3877              		.set	.LANCHOR0,. + 0
 3880              	Font_Num_6X16:
 3881 0000 00E01010 		.ascii	"\000\340\020\020\340\000\000\017\020\020\017\000"
 3881      E000000F 
 3881      10100F00 
 3882 000c 000020F0 		.ascii	"\000\000 \360\000\000\000\000\000\037\000\000"
 3882      00000000 
 3882      001F0000 
 3883 0018 00601010 		.ascii	"\000`\020\020\340\000\000\030\026\021\020\000"
 3883      E0000018 
 3883      16111000 
 3884 0024 00601010 		.ascii	"\000`\020\020\340\000\000\014\021\021\016\000"
 3884      E000000C 
 3884      11110E00 
 3885 0030 00008060 		.ascii	"\000\000\200`\360\000\000\006\005\004\037\004"
 3885      F0000006 
 3885      05041F04 
 3886 003c 00F09090 		.ascii	"\000\360\220\220\020\000\000\015\020\020\017\000"
 3886      1000000D 
 3886      10100F00 
 3887 0048 00E01010 		.ascii	"\000\340\020\020`\000\000\017\021\021\016\000"
ARM GAS  /tmp/ccYbGAiO.s 			page 96


 3887      6000000F 
 3887      11110E00 
 3888 0054 00101090 		.ascii	"\000\020\020\220p\000\000\000\034\003\000\000"
 3888      70000000 
 3888      1C030000 
 3889 0060 00E01010 		.ascii	"\000\340\020\020\340\000\000\016\021\021\016\000"
 3889      E000000E 
 3889      11110E00 
 3890 006c 00E01010 		.ascii	"\000\340\020\020\340\000\000\014\021\021\017\000"
 3890      E000000C 
 3890      11110F00 
 3891 0078 00000000 		.ascii	"\000\000\000\000\000\000\000\000\030\030\000\000"
 3891      00000000 
 3891      18180000 
 3892 0084 000000E0 		.ascii	"\000\000\000\340\000\000\000\001\001\017\001\001"
 3892      00000001 
 3892      010F0101 
 3893 0090 00000000 		.ascii	"\000\000\000\000\000\000\000\001\001\001\001\000"
 3893      00000001 
 3893      01010100 
 3894              		.text
 3895              	.Letext0:
 3896              		.file 2 "/usr/lib/gcc/arm-none-eabi/10.3.1/include/stdint.h"
 3897              		.file 3 "Drivers/CMSIS/Device/ST/STM32F1xx/Include/stm32f103xe.h"
 3898              		.file 4 "BSP/Inc/bsp_soft_i2c.h"
 3899              		.file 5 "Hardware/OLED/oled.h"
 3900              		.file 6 "Hardware/OLED/oled_font.h"
 3901              		.file 7 "Drivers/STM32F1xx_HAL_Driver/Inc/stm32f1xx_hal.h"
 3902              		.file 8 "/usr/include/newlib/string.h"
